
my_nios.elf:     file format elf32-littlenios2
my_nios.elf
architecture: nios2:r1, flags 0x00000112:
EXEC_P, HAS_SYMS, D_PAGED
start address 0x00040244

Program Header:
    LOAD off    0x00001000 vaddr 0x00040000 paddr 0x00040000 align 2**12
         filesz 0x00000020 memsz 0x00000020 flags r-x
    LOAD off    0x00001020 vaddr 0x00040020 paddr 0x00040020 align 2**12
         filesz 0x0000fce8 memsz 0x0000fce8 flags r-x
    LOAD off    0x00010d08 vaddr 0x0004fd08 paddr 0x000517f4 align 2**12
         filesz 0x00001aec memsz 0x00001aec flags rw-
    LOAD off    0x000132e0 vaddr 0x000532e0 paddr 0x000532e0 align 2**12
         filesz 0x00000000 memsz 0x0000016c flags rw-

Sections:
Idx Name          Size      VMA       LMA       File off  Algn
  0 .entry        00000020  00040000  00040000  00001000  2**5
                  CONTENTS, ALLOC, LOAD, READONLY, CODE
  1 .exceptions   00000224  00040020  00040020  00001020  2**2
                  CONTENTS, ALLOC, LOAD, READONLY, CODE
  2 .text         0000f708  00040244  00040244  00001244  2**2
                  CONTENTS, ALLOC, LOAD, READONLY, CODE
  3 .rodata       000003bc  0004f94c  0004f94c  0001094c  2**2
                  CONTENTS, ALLOC, LOAD, READONLY, DATA
  4 .rwdata       00001aec  0004fd08  000517f4  00010d08  2**2
                  CONTENTS, ALLOC, LOAD, DATA, SMALL_DATA
  5 .bss          0000016c  000532e0  000532e0  000132e0  2**2
                  ALLOC, SMALL_DATA
  6 .onchip_memory2_0 00000000  0005344c  0005344c  000127f4  2**0
                  CONTENTS
  7 .onchip_memory2_2 00000000  00080000  00080000  000127f4  2**0
                  CONTENTS
  8 .onchip_memory2_1 00000000  00081000  00081000  000127f4  2**0
                  CONTENTS
  9 .comment      00000023  00000000  00000000  000127f4  2**0
                  CONTENTS, READONLY
 10 .debug_aranges 00000f10  00000000  00000000  00012818  2**3
                  CONTENTS, READONLY, DEBUGGING
 11 .debug_info   000238af  00000000  00000000  00013728  2**0
                  CONTENTS, READONLY, DEBUGGING
 12 .debug_abbrev 000091ca  00000000  00000000  00036fd7  2**0
                  CONTENTS, READONLY, DEBUGGING
 13 .debug_line   0000b6b9  00000000  00000000  000401a1  2**0
                  CONTENTS, READONLY, DEBUGGING
 14 .debug_frame  00002204  00000000  00000000  0004b85c  2**2
                  CONTENTS, READONLY, DEBUGGING
 15 .debug_str    00003940  00000000  00000000  0004da60  2**0
                  CONTENTS, READONLY, DEBUGGING
 16 .debug_loc    00017868  00000000  00000000  000513a0  2**0
                  CONTENTS, READONLY, DEBUGGING
 17 .debug_alt_sim_info 00000060  00000000  00000000  00068c08  2**2
                  CONTENTS, READONLY, DEBUGGING
 18 .debug_ranges 000018c0  00000000  00000000  00068c68  2**3
                  CONTENTS, READONLY, DEBUGGING
 19 .thread_model 00000003  00000000  00000000  0006d8f6  2**0
                  CONTENTS, READONLY
 20 .cpu          0000000c  00000000  00000000  0006d8f9  2**0
                  CONTENTS, READONLY
 21 .qsys         00000001  00000000  00000000  0006d905  2**0
                  CONTENTS, READONLY
 22 .simulation_enabled 00000001  00000000  00000000  0006d906  2**0
                  CONTENTS, READONLY
 23 .sysid_hash   00000004  00000000  00000000  0006d907  2**0
                  CONTENTS, READONLY
 24 .sysid_base   00000004  00000000  00000000  0006d90b  2**0
                  CONTENTS, READONLY
 25 .sysid_time   00000004  00000000  00000000  0006d90f  2**0
                  CONTENTS, READONLY
 26 .stderr_dev   0000000b  00000000  00000000  0006d913  2**0
                  CONTENTS, READONLY
 27 .stdin_dev    0000000b  00000000  00000000  0006d91e  2**0
                  CONTENTS, READONLY
 28 .stdout_dev   0000000b  00000000  00000000  0006d929  2**0
                  CONTENTS, READONLY
 29 .sopc_system_name 00000007  00000000  00000000  0006d934  2**0
                  CONTENTS, READONLY
 30 .quartus_project_dir 00000026  00000000  00000000  0006d93b  2**0
                  CONTENTS, READONLY
 31 .jdi          00005599  00000000  00000000  0006d961  2**0
                  CONTENTS, READONLY
 32 .sopcinfo     000564fa  00000000  00000000  00072efa  2**0
                  CONTENTS, READONLY
SYMBOL TABLE:
00040000 l    d  .entry	00000000 .entry
00040020 l    d  .exceptions	00000000 .exceptions
00040244 l    d  .text	00000000 .text
0004f94c l    d  .rodata	00000000 .rodata
0004fd08 l    d  .rwdata	00000000 .rwdata
000532e0 l    d  .bss	00000000 .bss
0005344c l    d  .onchip_memory2_0	00000000 .onchip_memory2_0
00080000 l    d  .onchip_memory2_2	00000000 .onchip_memory2_2
00081000 l    d  .onchip_memory2_1	00000000 .onchip_memory2_1
00000000 l    d  .comment	00000000 .comment
00000000 l    d  .debug_aranges	00000000 .debug_aranges
00000000 l    d  .debug_info	00000000 .debug_info
00000000 l    d  .debug_abbrev	00000000 .debug_abbrev
00000000 l    d  .debug_line	00000000 .debug_line
00000000 l    d  .debug_frame	00000000 .debug_frame
00000000 l    d  .debug_str	00000000 .debug_str
00000000 l    d  .debug_loc	00000000 .debug_loc
00000000 l    d  .debug_alt_sim_info	00000000 .debug_alt_sim_info
00000000 l    d  .debug_ranges	00000000 .debug_ranges
00000000 l    df *ABS*	00000000 ../my_nios_bsp//obj/HAL/src/crt0.o
0004028c l       .text	00000000 alt_after_alt_main
00000000 l    df *ABS*	00000000 alt_irq_handler.c
00000000 l    df *ABS*	00000000 alt_instruction_exception_entry.c
00000000 l    df *ABS*	00000000 hello_world.c
00040290 l     F .text	0000005c handle_button_interrupts
000402ec l     F .text	0000006c init_button_pio
00000000 l    df *ABS*	00000000 printf.c
00000000 l    df *ABS*	00000000 puts.c
00000000 l    df *ABS*	00000000 strlen.c
00000000 l    df *ABS*	00000000 vfprintf.c
0004fa4e l     O .rodata	00000010 zeroes.4404
00042abc l     F .text	000000bc __sbprintf
0004fa5e l     O .rodata	00000010 blanks.4403
00000000 l    df *ABS*	00000000 wsetup.c
00000000 l    df *ABS*	00000000 dtoa.c
00042ccc l     F .text	00000200 quorem
00000000 l    df *ABS*	00000000 fflush.c
00000000 l    df *ABS*	00000000 findfp.c
000447fc l     F .text	00000008 __fp_unlock
00044810 l     F .text	0000019c __sinit.part.1
000449ac l     F .text	00000008 __fp_lock
00000000 l    df *ABS*	00000000 mallocr.c
00000000 l    df *ABS*	00000000 fvwrite.c
00000000 l    df *ABS*	00000000 fwalk.c
00000000 l    df *ABS*	00000000 impure.c
0004fd08 l     O .rwdata	00000424 impure_data
00000000 l    df *ABS*	00000000 locale.c
0005014c l     O .rwdata	00000020 lc_ctype_charset
0005012c l     O .rwdata	00000020 lc_message_charset
0005016c l     O .rwdata	00000038 lconv
00000000 l    df *ABS*	00000000 makebuf.c
00000000 l    df *ABS*	00000000 mallocr.c
00000000 l    df *ABS*	00000000 memchr.c
00000000 l    df *ABS*	00000000 memcpy.c
00000000 l    df *ABS*	00000000 memmove.c
00000000 l    df *ABS*	00000000 memset.c
00000000 l    df *ABS*	00000000 mprec.c
0004fa90 l     O .rodata	0000000c p05.2768
00000000 l    df *ABS*	00000000 mallocr.c
00000000 l    df *ABS*	00000000 s_fpclassify.c
00000000 l    df *ABS*	00000000 sbrkr.c
00000000 l    df *ABS*	00000000 stdio.c
00000000 l    df *ABS*	00000000 strcmp.c
00000000 l    df *ABS*	00000000 vfprintf.c
00047da8 l     F .text	000000fc __sprint_r.part.0
0004fbc4 l     O .rodata	00000010 blanks.4348
0004fbb4 l     O .rodata	00000010 zeroes.4349
00049334 l     F .text	000000bc __sbprintf
00000000 l    df *ABS*	00000000 writer.c
00000000 l    df *ABS*	00000000 closer.c
00000000 l    df *ABS*	00000000 mallocr.c
00000000 l    df *ABS*	00000000 fclose.c
00000000 l    df *ABS*	00000000 fputwc.c
00000000 l    df *ABS*	00000000 fstatr.c
00000000 l    df *ABS*	00000000 int_errno.c
00000000 l    df *ABS*	00000000 isattyr.c
00000000 l    df *ABS*	00000000 lseekr.c
00000000 l    df *ABS*	00000000 readr.c
00000000 l    df *ABS*	00000000 wbuf.c
00000000 l    df *ABS*	00000000 wcrtomb.c
00000000 l    df *ABS*	00000000 wctomb_r.c
00000000 l    df *ABS*	00000000 libgcc2.c
00000000 l    df *ABS*	00000000 libgcc2.c
00000000 l    df *ABS*	00000000 lib2-divmod.c
00000000 l    df *ABS*	00000000 adddf3.c
00000000 l    df *ABS*	00000000 divdf3.c
00000000 l    df *ABS*	00000000 eqdf2.c
00000000 l    df *ABS*	00000000 gedf2.c
00000000 l    df *ABS*	00000000 ledf2.c
00000000 l    df *ABS*	00000000 muldf3.c
00000000 l    df *ABS*	00000000 subdf3.c
00000000 l    df *ABS*	00000000 fixdfsi.c
00000000 l    df *ABS*	00000000 floatsidf.c
00000000 l    df *ABS*	00000000 floatunsidf.c
00000000 l    df *ABS*	00000000 libgcc2.c
00000000 l    df *ABS*	00000000 libgcc2.c
00000000 l    df *ABS*	00000000 alt_close.c
0004cff0 l     F .text	0000003c alt_get_errno
00000000 l    df *ABS*	00000000 alt_dev.c
0004d0fc l     F .text	0000002c alt_dev_null_write
00000000 l    df *ABS*	00000000 alt_errno.c
00000000 l    df *ABS*	00000000 alt_fstat.c
0004d128 l     F .text	0000003c alt_get_errno
00000000 l    df *ABS*	00000000 alt_iic.c
00000000 l    df *ABS*	00000000 alt_iic_isr_register.c
00000000 l    df *ABS*	00000000 alt_irq_vars.c
00000000 l    df *ABS*	00000000 alt_isatty.c
0004d4b4 l     F .text	0000003c alt_get_errno
00000000 l    df *ABS*	00000000 alt_load.c
0004d594 l     F .text	00000068 alt_load_section
00000000 l    df *ABS*	00000000 alt_lseek.c
0004d680 l     F .text	0000003c alt_get_errno
00000000 l    df *ABS*	00000000 alt_main.c
00000000 l    df *ABS*	00000000 alt_malloc_lock.c
00000000 l    df *ABS*	00000000 alt_read.c
0004d854 l     F .text	0000003c alt_get_errno
00000000 l    df *ABS*	00000000 alt_release_fd.c
00000000 l    df *ABS*	00000000 alt_sbrk.c
000517e8 l     O .rwdata	00000004 heap_end
00000000 l    df *ABS*	00000000 alt_usleep.c
00000000 l    df *ABS*	00000000 alt_write.c
0004dad0 l     F .text	0000003c alt_get_errno
00000000 l    df *ABS*	00000000 alt_sys_init.c
0004dc04 l     F .text	00000034 alt_dev_reg
00050754 l     O .rwdata	00001060 jtag_uart_0
00000000 l    df *ABS*	00000000 altera_avalon_jtag_uart_fd.c
00000000 l    df *ABS*	00000000 altera_avalon_jtag_uart_init.c
0004def8 l     F .text	0000020c altera_avalon_jtag_uart_irq
0004e104 l     F .text	000000a0 altera_avalon_jtag_uart_timeout
00000000 l    df *ABS*	00000000 altera_avalon_jtag_uart_ioctl.c
00000000 l    df *ABS*	00000000 altera_avalon_jtag_uart_read.c
00000000 l    df *ABS*	00000000 altera_avalon_jtag_uart_write.c
00000000 l    df *ABS*	00000000 altera_avalon_timer_ts.c
00000000 l    df *ABS*	00000000 altera_avalon_timer_vars.c
00000000 l    df *ABS*	00000000 alt_alarm_start.c
00000000 l    df *ABS*	00000000 alt_busy_sleep.c
00000000 l    df *ABS*	00000000 alt_dcache_flush_all.c
00000000 l    df *ABS*	00000000 alt_dev_llist_insert.c
0004eb20 l     F .text	0000003c alt_get_errno
00000000 l    df *ABS*	00000000 alt_do_ctors.c
00000000 l    df *ABS*	00000000 alt_do_dtors.c
00000000 l    df *ABS*	00000000 alt_icache_flush_all.c
00000000 l    df *ABS*	00000000 alt_io_redirect.c
0004ed90 l     F .text	000000c4 alt_open_fd
00000000 l    df *ABS*	00000000 alt_open.c
0004eed0 l     F .text	0000003c alt_get_errno
0004ef0c l     F .text	000000c4 alt_file_locked
00000000 l    df *ABS*	00000000 alt_tick.c
00000000 l    df *ABS*	00000000 altera_nios2_gen2_irq.c
00000000 l    df *ABS*	00000000 alt_find_dev.c
00000000 l    df *ABS*	00000000 alt_find_file.c
00000000 l    df *ABS*	00000000 alt_get_fd.c
00000000 l    df *ABS*	00000000 alt_icache_flush.c
00000000 l    df *ABS*	00000000 atexit.c
00000000 l    df *ABS*	00000000 exit.c
00000000 l    df *ABS*	00000000 memcmp.c
00000000 l    df *ABS*	00000000 __atexit.c
00000000 l    df *ABS*	00000000 __call_atexit.c
00000000 l    df *ABS*	00000000 alt_exit.c
00053318 g     O .bss	00000004 alt_instruction_exception_handler
000473ec g     F .text	00000074 _mprec_log10
000474d8 g     F .text	0000008c __any_on
000498d0 g     F .text	00000054 _isatty_r
0004fa9c g     O .rodata	00000028 __mprec_tinytens
0004d790 g     F .text	0000007c alt_main
0004073c g     F .text	000000c0 _puts_r
0005334c g     O .bss	00000100 alt_irq
00049924 g     F .text	00000060 _lseek_r
000517f4 g       *ABS*	00000000 __flash_rwdata_start
0004bb1c g     F .text	00000088 .hidden __eqdf2
0005344c g       *ABS*	00000000 __alt_heap_start
00040700 g     F .text	0000003c printf
00049b3c g     F .text	0000009c _wcrtomb_r
00047c68 g     F .text	0000005c __sseek
00044b4c g     F .text	00000010 __sinit
000499e4 g     F .text	00000140 __swbuf_r
00045614 g     F .text	0000007c _setlocale_r
000449b4 g     F .text	00000068 __sfmoreglue
0004d830 g     F .text	00000024 __malloc_unlock
00053314 g     O .bss	00000004 altera_avalon_timer_ts_freq
000462e4 g     F .text	0000015c memmove
00044b34 g     F .text	00000018 _cleanup
00046568 g     F .text	000000a8 _Balloc
0004bba4 g     F .text	000000dc .hidden __gtdf2
0004f2c8 g     F .text	00000024 altera_nios2_gen2_irq_init
00040000 g     F .entry	0000001c __reset
000532e0 g     O .bss	00000004 edge_capture
00040020 g       *ABS*	00000000 __flash_exceptions_start
00049874 g     F .text	0000005c _fstat_r
000532fc g     O .bss	00000004 errno
00047be4 g     F .text	00000008 __seofread
00053308 g     O .bss	00000004 alt_argv
000597b4 g       *ABS*	00000000 _gp
0004daa0 g     F .text	00000030 usleep
00080000 g       *ABS*	00000000 __alt_mem_onchip_memory2_2
000505d4 g     O .rwdata	00000180 alt_fd_list
0004f2ec g     F .text	00000090 alt_find_dev
0004619c g     F .text	00000148 memcpy
00044804 g     F .text	0000000c _cleanup_r
0004ce08 g     F .text	000000dc .hidden __floatsidf
0004ee54 g     F .text	0000007c alt_io_redirect
0004bc80 g     F .text	000000f4 .hidden __ltdf2
000404e4 g     F .text	000000a8 addArrayPointsX
0004f94c g       *ABS*	00000000 __DTOR_END__
000407fc g     F .text	00000014 puts
0004ecf4 g     F .text	0000009c alt_exception_cause_generated_bad_addr
00047ac8 g     F .text	00000074 __fpclassifyd
00047348 g     F .text	000000a4 __ratio
00049318 g     F .text	0000001c __vfiprintf_internal
0004e2fc g     F .text	0000021c altera_avalon_jtag_uart_read
000406d0 g     F .text	00000030 _printf_r
00040000 g       *ABS*	00000000 __alt_mem_onchip_memory2_0
0004a8cc g     F .text	00000064 .hidden __udivsi3
0004d4f0 g     F .text	000000a4 isatty
0004faec g     O .rodata	000000c8 __mprec_tens
00045690 g     F .text	0000000c __locale_charset
0004f528 g     F .text	00000090 alt_icache_flush
000532f8 g     O .bss	00000004 __malloc_top_pad
000517bc g     O .rwdata	00000004 __mb_cur_max
000456c0 g     F .text	0000000c _localeconv_r
00046974 g     F .text	0000003c __i2b
00044fd0 g     F .text	000004bc __sfvwrite_r
00047b3c g     F .text	00000054 _sbrk_r
00049984 g     F .text	00000060 _read_r
000517dc g     O .rwdata	00000004 alt_max_fd
00049568 g     F .text	000000f0 _fclose_r
000447cc g     F .text	00000030 fflush
000532f4 g     O .bss	00000004 __malloc_max_sbrked_mem
0004a988 g     F .text	000008ac .hidden __adddf3
000470f0 g     F .text	0000010c __b2d
0004a29c g     F .text	00000538 .hidden __umoddi3
0004d6bc g     F .text	000000d4 lseek
000517b4 g     O .rwdata	00000004 _global_impure_ptr
00047564 g     F .text	00000564 _realloc_r
0005344c g       *ABS*	00000000 __bss_end
0004d3c4 g     F .text	000000f0 alt_iic_isr_register
0004f1c0 g     F .text	00000108 alt_tick
00049d24 g     F .text	00000578 .hidden __udivdi3
000497d0 g     F .text	00000024 _fputwc_r
0004fac4 g     O .rodata	00000028 __mprec_bigtens
00046758 g     F .text	00000104 __s2b
0004cee4 g     F .text	000000a8 .hidden __floatunsidf
00046e30 g     F .text	00000060 __mcmp
00044b6c g     F .text	00000018 __fp_lock_all
0004d378 g     F .text	0000004c alt_ic_irq_enabled
0004f124 g     F .text	0000009c alt_alarm_stop
00053300 g     O .bss	00000004 alt_irq_active
000400fc g     F .exceptions	000000d4 alt_irq_handler
000505ac g     O .rwdata	00000028 alt_dev_null
0004ead8 g     F .text	00000048 alt_dcache_flush_all
0004685c g     F .text	00000068 __hi0bits
0004cd88 g     F .text	00000080 .hidden __fixdfsi
000517f4 g       *ABS*	00000000 __ram_rwdata_end
000517d4 g     O .rwdata	00000008 alt_dev_list
0004db0c g     F .text	000000f8 write
0004e834 g     F .text	00000020 alt_timestamp_freq
0004fd08 g       *ABS*	00000000 __ram_rodata_end
0004d164 g     F .text	000000b0 fstat
0004bc80 g     F .text	000000f4 .hidden __ledf2
00046ba8 g     F .text	00000140 __pow5mult
00047ebc g     F .text	0000145c ___vfiprintf_internal_r
000532ec g     O .bss	00000004 __nlocale_changed
0004a930 g     F .text	00000058 .hidden __umodsi3
0005344c g       *ABS*	00000000 end
0004de38 g     F .text	000000c0 altera_avalon_jtag_uart_init
000401d0 g     F .exceptions	00000074 alt_instruction_exception_entry
0004f94c g       *ABS*	00000000 __CTOR_LIST__
00072000 g       *ABS*	00000000 __alt_stack_pointer
0004cf8c g     F .text	00000064 .hidden __clzsi2
0004e518 g     F .text	00000224 altera_avalon_jtag_uart_write
00044b5c g     F .text	00000004 __sfp_lock_acquire
000460b8 g     F .text	000000e4 memchr
000408a8 g     F .text	000021f8 ___vfprintf_internal_r
00044cc0 g     F .text	00000310 _free_r
0004569c g     F .text	00000010 __locale_mb_cur_max
00040358 g     F .text	00000084 process_no_interrupt
0004f798 g     F .text	00000180 __call_exitprocs
000532e8 g     O .bss	00000004 __mlocale_changed
000517c0 g     O .rwdata	00000004 __malloc_sbrk_base
00040244 g     F .text	0000004c _start
0005331c g     O .bss	00000004 _alt_tick_rate
000403dc g     F .text	00000028 GetMSB
00046ce8 g     F .text	00000148 __lshift
00053320 g     O .bss	00000004 _alt_nticks
0004d890 g     F .text	000000fc read
0004dc70 g     F .text	00000064 alt_sys_init
0004f680 g     F .text	00000118 __register_exitproc
000469b0 g     F .text	000001f8 __multiply
0004e1a4 g     F .text	00000068 altera_avalon_jtag_uart_close
0004fd08 g       *ABS*	00000000 __ram_rwdata_start
0004f94c g       *ABS*	00000000 __ram_rodata_start
00053324 g     O .bss	00000028 __malloc_current_mallinfo
00081000 g       *ABS*	00000000 __alt_mem_onchip_memory2_1
000471fc g     F .text	0000014c __d2b
0004dcd4 g     F .text	00000060 altera_avalon_jtag_uart_read_fd
0004f484 g     F .text	000000a4 alt_get_fd
0004e980 g     F .text	00000158 alt_busy_sleep
00049450 g     F .text	00000054 _close_r
0004f604 g     F .text	0000007c memcmp
0004dd94 g     F .text	00000050 altera_avalon_jtag_uart_close_fd
0005344c g       *ABS*	00000000 __alt_stack_base
0004dde4 g     F .text	00000054 altera_avalon_jtag_uart_ioctl_fd
00042b78 g     F .text	00000154 __swsetup_r
0004b234 g     F .text	000008e8 .hidden __divdf3
00044a1c g     F .text	00000118 __sfp
00047460 g     F .text	00000078 __copybits
000501a4 g     O .rwdata	00000408 __malloc_av_
00044b68 g     F .text	00000004 __sinit_lock_release
0004bd74 g     F .text	00000718 .hidden __muldf3
00047b90 g     F .text	00000054 __sread
0004f37c g     F .text	00000108 alt_find_file
0004eb5c g     F .text	000000a4 alt_dev_llist_insert
0004d80c g     F .text	00000024 __malloc_lock
0004d9f0 g     F .text	000000b0 sbrk
00044770 g     F .text	0000005c _fflush_r
000494a4 g     F .text	000000c4 _calloc_r
000532e0 g       *ABS*	00000000 __bss_start
00046440 g     F .text	00000128 memset
0004058c g     F .text	00000144 main
0005330c g     O .bss	00000004 alt_envp
000532f0 g     O .bss	00000004 __malloc_max_total_mem
0004dd34 g     F .text	00000060 altera_avalon_jtag_uart_write_fd
00049b24 g     F .text	00000018 __swbuf
00047cc4 g     F .text	00000008 __sclose
00072000 g       *ABS*	00000000 __alt_heap_limit
00049658 g     F .text	00000014 fclose
0004e73c g     F .text	00000078 alt_timestamp_start
00042ecc g     F .text	00001688 _dtoa_r
000458ac g     F .text	0000080c _malloc_r
00049c98 g     F .text	00000030 __ascii_wctomb
000517e0 g     O .rwdata	00000004 alt_errno
0004548c g     F .text	000000c4 _fwalk
0004a7d4 g     F .text	00000084 .hidden __divsi3
00044b9c g     F .text	00000124 _malloc_trim_r
0004f94c g       *ABS*	00000000 __CTOR_END__
00047ccc g     F .text	000000dc strcmp
0004f94c g       *ABS*	00000000 __flash_rodata_start
0004f94c g       *ABS*	00000000 __DTOR_LIST__
0004bb1c g     F .text	00000088 .hidden __nedf2
0004dc38 g     F .text	00000038 alt_irq_init
0004d98c g     F .text	00000064 alt_release_fd
0004fbd4 g     O .rodata	00000100 .hidden __clz_tab
000532e4 g     O .bss	00000004 _PathLocale
0004f5b8 g     F .text	00000014 atexit
000493f0 g     F .text	00000060 _write_r
000456cc g     F .text	00000018 setlocale
000517b8 g     O .rwdata	00000004 _impure_ptr
00053304 g     O .bss	00000004 alt_argc
00044554 g     F .text	0000021c __sflush_r
00053310 g     O .bss	00000004 altera_avalon_timer_ts_base
0004ec60 g     F .text	00000060 _do_dtors
000456b8 g     F .text	00000008 __locale_cjk_lang
00040020 g       .exceptions	00000000 alt_irq_entry
0004708c g     F .text	00000064 __ulp
00044b84 g     F .text	00000018 __fp_unlock_all
000517cc g     O .rwdata	00000008 alt_fs_list
00040020 g       *ABS*	00000000 __ram_exceptions_start
000456e4 g     F .text	0000000c localeconv
0004e7b4 g     F .text	00000080 alt_timestamp
0004d214 g     F .text	00000050 alt_ic_isr_register
0004042c g     F .text	000000b8 read_on_chip_ram
000517f4 g       *ABS*	00000000 _edata
0005344c g       *ABS*	00000000 _end
0004966c g     F .text	00000164 __fputwc
00040244 g       *ABS*	00000000 __ram_exceptions_end
0004e20c g     F .text	000000f0 altera_avalon_jtag_uart_ioctl
0004d2ec g     F .text	0000008c alt_ic_irq_disable
00047bec g     F .text	0000007c __swrite
000517c4 g     O .rwdata	00000004 __malloc_trim_threshold
000456ac g     F .text	0000000c __locale_msgcharset
0004f5cc g     F .text	00000038 exit
00045550 g     F .text	000000c4 _fwalk_reent
00046e90 g     F .text	000001fc __mdiff
0004a858 g     F .text	00000074 .hidden __modsi3
00072000 g       *ABS*	00000000 __alt_data_end
00040020 g     F .exceptions	00000000 alt_exception
00044b60 g     F .text	00000004 __sfp_lock_release
0004f918 g     F .text	00000034 _exit
0004e854 g     F .text	0000012c alt_alarm_start
000456f0 g     F .text	000001bc __smakebuf_r
00040810 g     F .text	00000098 strlen
0004efd0 g     F .text	00000154 open
0004bba4 g     F .text	000000dc .hidden __gedf2
000517c8 g     O .rwdata	00000004 __wctomb
00047ea4 g     F .text	00000018 __sprint_r
0004ecc0 g     F .text	00000034 alt_icache_flush_all
000517e4 g     O .rwdata	00000004 alt_priority_mask
0004d264 g     F .text	00000088 alt_ic_irq_enable
00042aa0 g     F .text	0000001c __vfprintf_internal
00049cc8 g     F .text	0000005c _wctomb_r
0004c48c g     F .text	000008fc .hidden __subdf3
00040404 g     F .text	00000028 GetLSB
000468c4 g     F .text	000000b0 __lo0bits
000517ec g     O .rwdata	00000008 alt_alarm_list
0004ec00 g     F .text	00000060 _do_ctors
00049bd8 g     F .text	000000c0 wcrtomb
0004d02c g     F .text	000000d0 close
0004d5fc g     F .text	00000084 alt_load
000497f4 g     F .text	00000080 fputwc
00044b64 g     F .text	00000004 __sinit_lock_acquire
00046638 g     F .text	00000120 __multadd
00046610 g     F .text	00000028 _Bfree



Disassembly of section .entry:

00040000 <__reset>:
#if NIOS2_ICACHE_SIZE > 0 && defined(ALT_ALLOW_CODE_AT_RESET) && (!defined(ALT_SIM_OPTIMIZE) || defined(NIOS2_ECC_PRESENT))
    /* Assume the instruction cache size is always a power of two. */
#if NIOS2_ICACHE_SIZE > 0x8000
    movhi r2, %hi(NIOS2_ICACHE_SIZE)
#else
    movui r2, NIOS2_ICACHE_SIZE
   40000:	00840014 	movui	r2,4096
#endif

0:
    initi r2
   40004:	1001483a 	initi	r2
    addi r2, r2, -NIOS2_ICACHE_LINE_SIZE
   40008:	10bff804 	addi	r2,r2,-32
    bgt r2, zero, 0b
   4000c:	00bffd16 	blt	zero,r2,40004 <__alt_mem_onchip_memory2_1+0xfffbf004>
 * Jump to the _start entry point in the .text section if reset code
 * is allowed or if optimizing for RTL simulation.
 */
#if defined(ALT_ALLOW_CODE_AT_RESET) || defined(ALT_SIM_OPTIMIZE)
    /* Jump to the _start entry point in the .text section. */
    movhi r1, %hi(_start)
   40010:	00400134 	movhi	at,4
    ori r1, r1, %lo(_start)
   40014:	08409114 	ori	at,at,580
    jmp r1
   40018:	0800683a 	jmp	at
   4001c:	00000000 	call	0 <__reset-0x40000>

Disassembly of section .exceptions:

00040020 <alt_exception>:

#else /* ALT_EXCEPTION_STACK disabled */
        /* 
         * Reserve space on normal stack for registers about to be pushed.
         */
        addi  sp, sp, -76
   40020:	deffed04 	addi	sp,sp,-76
         * documentation for details).
         *
         * Leave a gap in the stack frame at 4(sp) for the muldiv handler to
         * store zero into.
         */
        stw   ra,  0(sp)
   40024:	dfc00015 	stw	ra,0(sp)
        stw   r1,   8(sp)
   40028:	d8400215 	stw	at,8(sp)
        stw   r2,  12(sp)
   4002c:	d8800315 	stw	r2,12(sp)
        stw   r3,  16(sp)
   40030:	d8c00415 	stw	r3,16(sp)
        stw   r4,  20(sp)
   40034:	d9000515 	stw	r4,20(sp)
        stw   r5,  24(sp)
   40038:	d9400615 	stw	r5,24(sp)
        stw   r6,  28(sp)
   4003c:	d9800715 	stw	r6,28(sp)
        stw   r7,  32(sp)
   40040:	d9c00815 	stw	r7,32(sp)
        rdctl r5, estatus   /* Read early to avoid usage stall */
   40044:	000b307a 	rdctl	r5,estatus
        stw   r8,  36(sp)
   40048:	da000915 	stw	r8,36(sp)
        stw   r9,  40(sp)
   4004c:	da400a15 	stw	r9,40(sp)
        stw   r10, 44(sp)
   40050:	da800b15 	stw	r10,44(sp)
        stw   r11, 48(sp)
   40054:	dac00c15 	stw	r11,48(sp)
        stw   r12, 52(sp)
   40058:	db000d15 	stw	r12,52(sp)
        stw   r13, 56(sp)
   4005c:	db400e15 	stw	r13,56(sp)
        stw   r14, 60(sp)
   40060:	db800f15 	stw	r14,60(sp)
        stw   r15, 64(sp)
   40064:	dbc01015 	stw	r15,64(sp)
        /*
         * ea-4 contains the address of the instruction being executed
         * when the exception occured. For interrupt exceptions, we will
         * will be re-issue the isntruction. Store it in 72(sp)
         */
        stw   r5,  68(sp)  /* estatus */
   40068:	d9401115 	stw	r5,68(sp)
        addi  r15, ea, -4  /* instruction that caused exception */
   4006c:	ebffff04 	addi	r15,ea,-4
        stw   r15,  72(sp)
   40070:	dbc01215 	stw	r15,72(sp)
#else
        /*
         * Test to see if the exception was a software exception or caused 
         * by an external interrupt, and vector accordingly.
         */
        rdctl r4, ipending
   40074:	0009313a 	rdctl	r4,ipending
        andi  r2, r5, 1
   40078:	2880004c 	andi	r2,r5,1
        beq   r2, zero, .Lnot_irq
   4007c:	10000326 	beq	r2,zero,4008c <alt_exception+0x6c>
        beq   r4, zero, .Lnot_irq
   40080:	20000226 	beq	r4,zero,4008c <alt_exception+0x6c>
        /*
         * Now that all necessary registers have been preserved, call 
         * alt_irq_handler() to process the interrupts.
         */

        call alt_irq_handler
   40084:	00400fc0 	call	400fc <alt_irq_handler>

        .section .exceptions.irqreturn, "xa"

        br    .Lexception_exit
   40088:	00000706 	br	400a8 <alt_exception+0x88>
         * upon completion, so we write ea (address of instruction *after*
         * the one where the exception occured) into 72(sp). The actual
         * instruction that caused the exception is written in r2, which these
         * handlers will utilize.
         */
        stw ea, 72(sp) /* EA is PC+4 so will skip over instruction causing exception */
   4008c:	df401215 	stw	ea,72(sp)
.Lunknown_16bit:
        addi.n r4, r4, 2 /* Need PC+2 to skip over instruction causing exception */
        stw r4, 72(sp)

#else /* CDX is not Enabled and all instructions are 32bits */
        ldw r2, -4(ea) /* Instruction value that caused exception */
   40090:	e8bfff17 	ldw	r2,-4(ea)
         * debugger is present) or go into an infinite loop since the
         * handling behavior is undefined; in that case we will not return here.
         */

        /* Load exception-causing address as first argument (r4) */
        addi   r4, ea, -4
   40094:	e93fff04 	addi	r4,ea,-4

        /* Call the instruction-exception entry */
        call   alt_instruction_exception_entry
   40098:	00401d00 	call	401d0 <alt_instruction_exception_entry>
         * instruction
         *
         * Return code was 0: Skip. The instruction after the exception is
         * already stored in 72(sp).
         */
        bne   r2, r0, .Lexception_exit
   4009c:	1000021e 	bne	r2,zero,400a8 <alt_exception+0x88>

        /*
         * Otherwise, modify 72(sp) to re-issue the instruction that caused the
         * exception.
         */
        addi  r15, ea, -4  /* instruction that caused exception */
   400a0:	ebffff04 	addi	r15,ea,-4
        stw   r15,  72(sp)
   400a4:	dbc01215 	stw	r15,72(sp)
        /* 
         * Restore the saved registers, so that all general purpose registers 
         * have been restored to their state at the time the interrupt occured.
         */

        ldw   r5,  68(sp)
   400a8:	d9401117 	ldw	r5,68(sp)
        ldw   ea,  72(sp)  /* This becomes the PC once eret is executed */
   400ac:	df401217 	ldw	ea,72(sp)
        ldw   ra,   0(sp)
   400b0:	dfc00017 	ldw	ra,0(sp)

        wrctl estatus, r5
   400b4:	2801707a 	wrctl	estatus,r5

        ldw   r1,   8(sp)
   400b8:	d8400217 	ldw	at,8(sp)
        ldw   r2,  12(sp)
   400bc:	d8800317 	ldw	r2,12(sp)
        ldw   r3,  16(sp)
   400c0:	d8c00417 	ldw	r3,16(sp)
        ldw   r4,  20(sp)
   400c4:	d9000517 	ldw	r4,20(sp)
        ldw   r5,  24(sp)
   400c8:	d9400617 	ldw	r5,24(sp)
        ldw   r6,  28(sp)
   400cc:	d9800717 	ldw	r6,28(sp)
        ldw   r7,  32(sp)
   400d0:	d9c00817 	ldw	r7,32(sp)

#if defined(ALT_EXCEPTION_STACK) && defined(ALT_STACK_CHECK)
        ldw   et, %gprel(alt_exception_old_stack_limit)(gp)
#endif

        ldw   r8,  36(sp)
   400d4:	da000917 	ldw	r8,36(sp)
        ldw   r9,  40(sp)
   400d8:	da400a17 	ldw	r9,40(sp)
        ldw   r10, 44(sp)
   400dc:	da800b17 	ldw	r10,44(sp)
        ldw   r11, 48(sp)
   400e0:	dac00c17 	ldw	r11,48(sp)
        ldw   r12, 52(sp)
   400e4:	db000d17 	ldw	r12,52(sp)
        ldw   r13, 56(sp)
   400e8:	db400e17 	ldw	r13,56(sp)
        ldw   r14, 60(sp)
   400ec:	db800f17 	ldw	r14,60(sp)
        ldw   r15, 64(sp)
   400f0:	dbc01017 	ldw	r15,64(sp)
        stw   et, %gprel(alt_stack_limit_value)(gp)
        stw   zero, %gprel(alt_exception_old_stack_limit)(gp)
#endif /* ALT_STACK_CHECK */
        ldw   sp,  76(sp)
#else /* ALT_EXCEPTION_STACK disabled */
        addi  sp, sp, 76
   400f4:	dec01304 	addi	sp,sp,76

        /*
         * Return to the interrupted instruction.
         */

        eret
   400f8:	ef80083a 	eret

000400fc <alt_irq_handler>:
 * instruction is present if the macro ALT_CI_INTERRUPT_VECTOR defined.
 */

void alt_irq_handler (void) __attribute__ ((section (".exceptions")));
void alt_irq_handler (void)
{
   400fc:	defff904 	addi	sp,sp,-28
   40100:	dfc00615 	stw	ra,24(sp)
   40104:	df000515 	stw	fp,20(sp)
   40108:	df000504 	addi	fp,sp,20
  
  /*
   * Notify the operating system that we are at interrupt level.
   */ 
  
  ALT_OS_INT_ENTER();
   4010c:	0001883a 	nop
#ifndef NIOS2_EIC_PRESENT
static ALT_INLINE alt_u32 ALT_ALWAYS_INLINE alt_irq_pending (void)
{
  alt_u32 active;

  NIOS2_READ_IPENDING (active);
   40110:	0005313a 	rdctl	r2,ipending
   40114:	e0bffe15 	stw	r2,-8(fp)

  return active;
   40118:	e0bffe17 	ldw	r2,-8(fp)
   * Consider the case where the high priority interupt is asserted during
   * the interrupt entry sequence for a lower priority interrupt to see why
   * this is the case.
   */

  active = alt_irq_pending ();
   4011c:	e0bffb15 	stw	r2,-20(fp)

  do
  {
    i = 0;
   40120:	e03ffd15 	stw	zero,-12(fp)
    mask = 1;
   40124:	00800044 	movi	r2,1
   40128:	e0bffc15 	stw	r2,-16(fp)
     * called to clear the interrupt condition.
     */

    do
    {
      if (active & mask)
   4012c:	e0fffb17 	ldw	r3,-20(fp)
   40130:	e0bffc17 	ldw	r2,-16(fp)
   40134:	1884703a 	and	r2,r3,r2
   40138:	10001426 	beq	r2,zero,4018c <alt_irq_handler+0x90>
      { 
#ifdef ALT_ENHANCED_INTERRUPT_API_PRESENT
        alt_irq[i].handler(alt_irq[i].context); 
   4013c:	00800174 	movhi	r2,5
   40140:	108cd304 	addi	r2,r2,13132
   40144:	e0fffd17 	ldw	r3,-12(fp)
   40148:	180690fa 	slli	r3,r3,3
   4014c:	10c5883a 	add	r2,r2,r3
   40150:	10c00017 	ldw	r3,0(r2)
   40154:	00800174 	movhi	r2,5
   40158:	108cd304 	addi	r2,r2,13132
   4015c:	e13ffd17 	ldw	r4,-12(fp)
   40160:	200890fa 	slli	r4,r4,3
   40164:	1105883a 	add	r2,r2,r4
   40168:	10800104 	addi	r2,r2,4
   4016c:	10800017 	ldw	r2,0(r2)
   40170:	1009883a 	mov	r4,r2
   40174:	183ee83a 	callr	r3
#else
        alt_irq[i].handler(alt_irq[i].context, i); 
#endif
        break;
   40178:	0001883a 	nop
#ifndef NIOS2_EIC_PRESENT
static ALT_INLINE alt_u32 ALT_ALWAYS_INLINE alt_irq_pending (void)
{
  alt_u32 active;

  NIOS2_READ_IPENDING (active);
   4017c:	0005313a 	rdctl	r2,ipending
   40180:	e0bfff15 	stw	r2,-4(fp)

  return active;
   40184:	e0bfff17 	ldw	r2,-4(fp)
   40188:	00000706 	br	401a8 <alt_irq_handler+0xac>
      }
      mask <<= 1;
   4018c:	e0bffc17 	ldw	r2,-16(fp)
   40190:	1085883a 	add	r2,r2,r2
   40194:	e0bffc15 	stw	r2,-16(fp)
      i++;
   40198:	e0bffd17 	ldw	r2,-12(fp)
   4019c:	10800044 	addi	r2,r2,1
   401a0:	e0bffd15 	stw	r2,-12(fp)

    } while (1);
   401a4:	003fe106 	br	4012c <__alt_mem_onchip_memory2_1+0xfffbf12c>

    active = alt_irq_pending ();
   401a8:	e0bffb15 	stw	r2,-20(fp)
    
  } while (active);
   401ac:	e0bffb17 	ldw	r2,-20(fp)
   401b0:	103fdb1e 	bne	r2,zero,40120 <__alt_mem_onchip_memory2_1+0xfffbf120>

  /*
   * Notify the operating system that interrupt processing is complete.
   */ 

  ALT_OS_INT_EXIT();
   401b4:	0001883a 	nop
}
   401b8:	0001883a 	nop
   401bc:	e037883a 	mov	sp,fp
   401c0:	dfc00117 	ldw	ra,4(sp)
   401c4:	df000017 	ldw	fp,0(sp)
   401c8:	dec00204 	addi	sp,sp,8
   401cc:	f800283a 	ret

000401d0 <alt_instruction_exception_entry>:
 * that handler if it has been registered. Absent a handler, it will
 * break break or hang as discussed below.
 */
int 
alt_instruction_exception_entry (alt_u32 exception_pc)
{
   401d0:	defffb04 	addi	sp,sp,-20
   401d4:	dfc00415 	stw	ra,16(sp)
   401d8:	df000315 	stw	fp,12(sp)
   401dc:	df000304 	addi	fp,sp,12
   401e0:	e13fff15 	stw	r4,-4(fp)
 * NIOS2_EXCEPTION_CAUSE_NOT_PRESENT. Your handling routine should
 * check the validity of the cause argument before proceeding.
 */
#ifdef NIOS2_HAS_EXTRA_EXCEPTION_INFO
  /* Get exception cause & "badaddr" */
  NIOS2_READ_EXCEPTION(cause);
   401e4:	000531fa 	rdctl	r2,exception
   401e8:	e0bffd15 	stw	r2,-12(fp)
  cause = ( (cause & NIOS2_EXCEPTION_REG_CAUSE_MASK) >>
   401ec:	e0bffd17 	ldw	r2,-12(fp)
   401f0:	10801f0c 	andi	r2,r2,124
   401f4:	1004d0ba 	srli	r2,r2,2
   401f8:	e0bffd15 	stw	r2,-12(fp)
              NIOS2_EXCEPTION_REG_CAUSE_OFST );

  NIOS2_READ_BADADDR(badaddr);
   401fc:	0005333a 	rdctl	r2,badaddr
   40200:	e0bffe15 	stw	r2,-8(fp)
#else
  cause = NIOS2_EXCEPTION_CAUSE_NOT_PRESENT;
  badaddr = 0;
#endif /* NIOS2_HAS_EXTRA_EXCEPTION_INFO */

  if(alt_instruction_exception_handler) {
   40204:	d0a6d917 	ldw	r2,-25756(gp)
   40208:	10000726 	beq	r2,zero,40228 <alt_instruction_exception_entry+0x58>
     * Call handler. Its return value indicates whether the exception-causing
     * instruction should be re-issued. The code that called us,
     * alt_eceptions_entry.S, will look at this value and adjust the ea
     * register as necessary
     */
    return alt_instruction_exception_handler(cause, exception_pc, badaddr);
   4020c:	d0a6d917 	ldw	r2,-25756(gp)
   40210:	e0fffd17 	ldw	r3,-12(fp)
   40214:	e1bffe17 	ldw	r6,-8(fp)
   40218:	e17fff17 	ldw	r5,-4(fp)
   4021c:	1809883a 	mov	r4,r3
   40220:	103ee83a 	callr	r2
   40224:	00000206 	br	40230 <alt_instruction_exception_entry+0x60>
   *    (a peripheral which negates its interrupt output before its
   *    interrupt handler has been executed will cause spurious interrupts)
   */
  else {
#ifdef NIOS2_HAS_DEBUG_STUB
    NIOS2_BREAK();
   40228:	003da03a 	break	0
      ;
#endif /* NIOS2_HAS_DEBUG_STUB */
  }

  /* We should not get here. Remove compiler warning. */
  return NIOS2_EXCEPTION_RETURN_REISSUE_INST;
   4022c:	0005883a 	mov	r2,zero
}
   40230:	e037883a 	mov	sp,fp
   40234:	dfc00117 	ldw	ra,4(sp)
   40238:	df000017 	ldw	fp,0(sp)
   4023c:	dec00204 	addi	sp,sp,8
   40240:	f800283a 	ret

Disassembly of section .text:

00040244 <_start>:

    /* Assume the data cache size is always a power of two. */
#if NIOS2_DCACHE_SIZE > 0x8000
    movhi r2, %hi(NIOS2_DCACHE_SIZE)
#else
    movui r2, NIOS2_DCACHE_SIZE
   40244:	00820014 	movui	r2,2048
#endif

0:
    initd 0(r2)
   40248:	10000033 	initd	0(r2)
#ifdef NIOS2_ECC_PRESENT
    addi r2, r2, -4
#else
    addi r2, r2, -NIOS2_DCACHE_LINE_SIZE
   4024c:	10bff804 	addi	r2,r2,-32
#endif
    bgt r2, zero, 0b
   40250:	00bffd16 	blt	zero,r2,40248 <__alt_mem_onchip_memory2_1+0xfffbf248>

    /*
     * Now that the caches are initialized, set up the stack pointer and global pointer.
     * The values provided by the linker are assumed to be correctly aligned.
     */
    movhi sp, %hi(__alt_stack_pointer)
   40254:	06c001f4 	movhi	sp,7
    ori sp, sp, %lo(__alt_stack_pointer)
   40258:	dec80014 	ori	sp,sp,8192
    movhi gp, %hi(_gp)
   4025c:	06800174 	movhi	gp,5
    ori gp, gp, %lo(_gp)
   40260:	d6a5ed14 	ori	gp,gp,38836
 */
#ifndef ALT_SIM_OPTIMIZE
    /* Log that the BSS is about to be cleared. */
    ALT_LOG_PUTS(alt_log_msg_bss)

    movhi r2, %hi(__bss_start)
   40264:	00800174 	movhi	r2,5
    ori r2, r2, %lo(__bss_start)
   40268:	108cb814 	ori	r2,r2,13024

    movhi r3, %hi(__bss_end)
   4026c:	00c00174 	movhi	r3,5
    ori r3, r3, %lo(__bss_end)
   40270:	18cd1314 	ori	r3,r3,13388

    beq r2, r3, 1f
   40274:	10c00326 	beq	r2,r3,40284 <_start+0x40>

0:
    stw zero, (r2)
   40278:	10000015 	stw	zero,0(r2)
    addi r2, r2, 4
   4027c:	10800104 	addi	r2,r2,4
    bltu r2, r3, 0b
   40280:	10fffd36 	bltu	r2,r3,40278 <__alt_mem_onchip_memory2_1+0xfffbf278>
     * section aren't defined until alt_load() has been called).
     */
    mov   et, zero
#endif

    call alt_load
   40284:	004d5fc0 	call	4d5fc <alt_load>

    /* Log that alt_main is about to be called. */
    ALT_LOG_PUTS(alt_log_msg_alt_main)

    /* Call the C entry point. It should never return. */
    call alt_main
   40288:	004d7900 	call	4d790 <alt_main>

0004028c <alt_after_alt_main>:

    /* Wait in infinite loop in case alt_main does return. */
alt_after_alt_main:
    br alt_after_alt_main
   4028c:	003fff06 	br	4028c <__alt_mem_onchip_memory2_1+0xfffbf28c>

00040290 <handle_button_interrupts>:

/* Declare a global variable to hold the edge capture value. */
volatile int edge_capture;

static void handle_button_interrupts(void* context)
{
   40290:	defffd04 	addi	sp,sp,-12
   40294:	df000215 	stw	fp,8(sp)
   40298:	df000204 	addi	fp,sp,8
   4029c:	e13fff15 	stw	r4,-4(fp)
	/* Cast context to edge_capture's type. It is important that this
	be declared volatile to avoid unwanted compiler optimization. */
	volatile int* edge_capture_ptr = (volatile int*) context;
   402a0:	e0bfff17 	ldw	r2,-4(fp)
   402a4:	e0bffe15 	stw	r2,-8(fp)
	/*
	 * Read the edge capture register on the button PIO.
	 * Store value.
	 */
	*edge_capture_ptr = IORD_ALTERA_AVALON_PIO_EDGE_CAP(PIO_INTERRUPT_BASE);
   402a8:	00800234 	movhi	r2,8
   402ac:	108c0b04 	addi	r2,r2,12332
   402b0:	10c00037 	ldwio	r3,0(r2)
   402b4:	e0bffe17 	ldw	r2,-8(fp)
   402b8:	10c00015 	stw	r3,0(r2)
	/* Write to the edge capture register to reset it. */
	IOWR_ALTERA_AVALON_PIO_EDGE_CAP(PIO_INTERRUPT_BASE, 0);
   402bc:	0007883a 	mov	r3,zero
   402c0:	00800234 	movhi	r2,8
   402c4:	108c0b04 	addi	r2,r2,12332
   402c8:	10c00035 	stwio	r3,0(r2)
	/* Read the PIO to delay ISR exit. This is done to prevent a
	spurious interrupt in systems with high processor -> pio
	latency and fast interrupts. */
	IORD_ALTERA_AVALON_PIO_EDGE_CAP(PIO_INTERRUPT_BASE);
   402cc:	00800234 	movhi	r2,8
   402d0:	108c0b04 	addi	r2,r2,12332
   402d4:	10800037 	ldwio	r2,0(r2)
}
   402d8:	0001883a 	nop
   402dc:	e037883a 	mov	sp,fp
   402e0:	df000017 	ldw	fp,0(sp)
   402e4:	dec00104 	addi	sp,sp,4
   402e8:	f800283a 	ret

000402ec <init_button_pio>:

static void init_button_pio()
{
   402ec:	defffc04 	addi	sp,sp,-16
   402f0:	dfc00315 	stw	ra,12(sp)
   402f4:	df000215 	stw	fp,8(sp)
   402f8:	df000204 	addi	fp,sp,8
	/* Recast the edge_capture pointer to match the
	alt_irq_register() function prototype. */
	void* edge_capture_ptr = (void*) &edge_capture;
   402fc:	d0a6cb04 	addi	r2,gp,-25812
   40300:	e0bfff15 	stw	r2,-4(fp)
	/* Enable 1 button interrupts. */
	IOWR_ALTERA_AVALON_PIO_IRQ_MASK(PIO_INTERRUPT_BASE, 0x1);
   40304:	00c00044 	movi	r3,1
   40308:	00800234 	movhi	r2,8
   4030c:	108c0a04 	addi	r2,r2,12328
   40310:	10c00035 	stwio	r3,0(r2)
	/* Reset the edge capture register. */
	IOWR_ALTERA_AVALON_PIO_EDGE_CAP(PIO_INTERRUPT_BASE, 0x0);
   40314:	0007883a 	mov	r3,zero
   40318:	00800234 	movhi	r2,8
   4031c:	108c0b04 	addi	r2,r2,12332
   40320:	10c00035 	stwio	r3,0(r2)
	/* Register the ISR. */
	alt_ic_isr_register(PIO_INTERRUPT_IRQ_INTERRUPT_CONTROLLER_ID, PIO_INTERRUPT_IRQ, handle_button_interrupts, edge_capture_ptr, 0x0);
   40324:	d8000015 	stw	zero,0(sp)
   40328:	e1ffff17 	ldw	r7,-4(fp)
   4032c:	01800134 	movhi	r6,4
   40330:	3180a404 	addi	r6,r6,656
   40334:	01400084 	movi	r5,2
   40338:	0009883a 	mov	r4,zero
   4033c:	004d2140 	call	4d214 <alt_ic_isr_register>

}
   40340:	0001883a 	nop
   40344:	e037883a 	mov	sp,fp
   40348:	dfc00117 	ldw	ra,4(sp)
   4034c:	df000017 	ldw	fp,0(sp)
   40350:	dec00204 	addi	sp,sp,8
   40354:	f800283a 	ret

00040358 <process_no_interrupt>:

void process_no_interrupt()
{
   40358:	defffe04 	addi	sp,sp,-8
   4035c:	dfc00115 	stw	ra,4(sp)
   40360:	df000015 	stw	fp,0(sp)
   40364:	d839883a 	mov	fp,sp
	printf("interrupt disable\n");
   40368:	01000174 	movhi	r4,5
   4036c:	213e5304 	addi	r4,r4,-1716
   40370:	00407fc0 	call	407fc <puts>
	alt_ic_irq_disable(PIO_INTERRUPT_IRQ_INTERRUPT_CONTROLLER_ID, PIO_INTERRUPT_IRQ);
   40374:	01400084 	movi	r5,2
   40378:	0009883a 	mov	r4,zero
   4037c:	004d2ec0 	call	4d2ec <alt_ic_irq_disable>

	IOWR_ALTERA_AVALON_PIO_DATA(PIO_0_BASE, 0x01);
   40380:	00c00044 	movi	r3,1
   40384:	00800234 	movhi	r2,8
   40388:	108c0c04 	addi	r2,r2,12336
   4038c:	10c00035 	stwio	r3,0(r2)
	usleep(20000000);
   40390:	01004c74 	movhi	r4,305
   40394:	210b4004 	addi	r4,r4,11520
   40398:	004daa00 	call	4daa0 <usleep>
	IOWR_ALTERA_AVALON_PIO_DATA(PIO_0_BASE, 0x00);
   4039c:	0007883a 	mov	r3,zero
   403a0:	00800234 	movhi	r2,8
   403a4:	108c0c04 	addi	r2,r2,12336
   403a8:	10c00035 	stwio	r3,0(r2)
	alt_ic_irq_enable(PIO_INTERRUPT_IRQ_INTERRUPT_CONTROLLER_ID, PIO_INTERRUPT_IRQ);
   403ac:	01400084 	movi	r5,2
   403b0:	0009883a 	mov	r4,zero
   403b4:	004d2640 	call	4d264 <alt_ic_irq_enable>
	printf("interrupt enable\n");
   403b8:	01000174 	movhi	r4,5
   403bc:	213e5804 	addi	r4,r4,-1696
   403c0:	00407fc0 	call	407fc <puts>
}
   403c4:	0001883a 	nop
   403c8:	e037883a 	mov	sp,fp
   403cc:	dfc00117 	ldw	ra,4(sp)
   403d0:	df000017 	ldw	fp,0(sp)
   403d4:	dec00204 	addi	sp,sp,8
   403d8:	f800283a 	ret

000403dc <GetMSB>:

int GetMSB(int intValue)
{
   403dc:	defffe04 	addi	sp,sp,-8
   403e0:	df000115 	stw	fp,4(sp)
   403e4:	df000104 	addi	fp,sp,4
   403e8:	e13fff15 	stw	r4,-4(fp)
    return (intValue & 0xFFFF0000) >> 16;
   403ec:	e0bfff17 	ldw	r2,-4(fp)
   403f0:	1004d43a 	srli	r2,r2,16
}
   403f4:	e037883a 	mov	sp,fp
   403f8:	df000017 	ldw	fp,0(sp)
   403fc:	dec00104 	addi	sp,sp,4
   40400:	f800283a 	ret

00040404 <GetLSB>:

int GetLSB(int intValue)
{
   40404:	defffe04 	addi	sp,sp,-8
   40408:	df000115 	stw	fp,4(sp)
   4040c:	df000104 	addi	fp,sp,4
   40410:	e13fff15 	stw	r4,-4(fp)
    return (intValue & 0x0000FFFF);
   40414:	e0bfff17 	ldw	r2,-4(fp)
   40418:	10bfffcc 	andi	r2,r2,65535
}
   4041c:	e037883a 	mov	sp,fp
   40420:	df000017 	ldw	fp,0(sp)
   40424:	dec00104 	addi	sp,sp,4
   40428:	f800283a 	ret

0004042c <read_on_chip_ram>:

void read_on_chip_ram(int ram_addr , Point* src_point, Point* dst_point)
{
   4042c:	defff804 	addi	sp,sp,-32
   40430:	dfc00715 	stw	ra,28(sp)
   40434:	df000615 	stw	fp,24(sp)
   40438:	dc000515 	stw	r16,20(sp)
   4043c:	df000604 	addi	fp,sp,24
   40440:	e13ffc15 	stw	r4,-16(fp)
   40444:	e17ffd15 	stw	r5,-12(fp)
   40448:	e1bffe15 	stw	r6,-8(fp)
	//uint32_t xy;
	uint32_t read_val;
	for (int idx = 0; idx < MATCHES_NUMBER*2 ; idx++  )
   4044c:	e03ffa15 	stw	zero,-24(fp)
   40450:	00001a06 	br	404bc <read_on_chip_ram+0x90>
	{
		read_val = IORD(ram_addr, 0);
   40454:	e0bffc17 	ldw	r2,-16(fp)
   40458:	10800037 	ldwio	r2,0(r2)
   4045c:	e0bffb15 	stw	r2,-20(fp)

		src_point[idx].y = GetMSB(read_val);
   40460:	e0bffa17 	ldw	r2,-24(fp)
   40464:	1085883a 	add	r2,r2,r2
   40468:	1085883a 	add	r2,r2,r2
   4046c:	1007883a 	mov	r3,r2
   40470:	e0bffd17 	ldw	r2,-12(fp)
   40474:	10e1883a 	add	r16,r2,r3
   40478:	e0bffb17 	ldw	r2,-20(fp)
   4047c:	1009883a 	mov	r4,r2
   40480:	00403dc0 	call	403dc <GetMSB>
   40484:	8080008d 	sth	r2,2(r16)
		src_point[idx].x = GetLSB(read_val);
   40488:	e0bffa17 	ldw	r2,-24(fp)
   4048c:	1085883a 	add	r2,r2,r2
   40490:	1085883a 	add	r2,r2,r2
   40494:	1007883a 	mov	r3,r2
   40498:	e0bffd17 	ldw	r2,-12(fp)
   4049c:	10e1883a 	add	r16,r2,r3
   404a0:	e0bffb17 	ldw	r2,-20(fp)
   404a4:	1009883a 	mov	r4,r2
   404a8:	00404040 	call	40404 <GetLSB>
   404ac:	8080000d 	sth	r2,0(r16)

void read_on_chip_ram(int ram_addr , Point* src_point, Point* dst_point)
{
	//uint32_t xy;
	uint32_t read_val;
	for (int idx = 0; idx < MATCHES_NUMBER*2 ; idx++  )
   404b0:	e0bffa17 	ldw	r2,-24(fp)
   404b4:	10800044 	addi	r2,r2,1
   404b8:	e0bffa15 	stw	r2,-24(fp)
   404bc:	e0bffa17 	ldw	r2,-24(fp)
   404c0:	1080fa10 	cmplti	r2,r2,1000
   404c4:	103fe31e 	bne	r2,zero,40454 <__alt_mem_onchip_memory2_1+0xfffbf454>
		src_point[idx].y = GetMSB(read_val);
		src_point[idx].x = GetLSB(read_val);

	}

}
   404c8:	0001883a 	nop
   404cc:	e6ffff04 	addi	sp,fp,-4
   404d0:	dfc00217 	ldw	ra,8(sp)
   404d4:	df000117 	ldw	fp,4(sp)
   404d8:	dc000017 	ldw	r16,0(sp)
   404dc:	dec00304 	addi	sp,sp,12
   404e0:	f800283a 	ret

000404e4 <addArrayPointsX>:

void addArrayPointsX(Point a[],Point b[],Point res[],int size)
{
   404e4:	defffa04 	addi	sp,sp,-24
   404e8:	df000515 	stw	fp,20(sp)
   404ec:	df000504 	addi	fp,sp,20
   404f0:	e13ffc15 	stw	r4,-16(fp)
   404f4:	e17ffd15 	stw	r5,-12(fp)
   404f8:	e1bffe15 	stw	r6,-8(fp)
   404fc:	e1ffff15 	stw	r7,-4(fp)
    int i;
    for(i=0; i< size;i++)
   40500:	e03ffb15 	stw	zero,-20(fp)
   40504:	00001906 	br	4056c <addArrayPointsX+0x88>
    	res[i].x = a[i].x + b[i].x;
   40508:	e0bffb17 	ldw	r2,-20(fp)
   4050c:	1085883a 	add	r2,r2,r2
   40510:	1085883a 	add	r2,r2,r2
   40514:	1007883a 	mov	r3,r2
   40518:	e0bffe17 	ldw	r2,-8(fp)
   4051c:	10c7883a 	add	r3,r2,r3
   40520:	e0bffb17 	ldw	r2,-20(fp)
   40524:	1085883a 	add	r2,r2,r2
   40528:	1085883a 	add	r2,r2,r2
   4052c:	1009883a 	mov	r4,r2
   40530:	e0bffc17 	ldw	r2,-16(fp)
   40534:	1105883a 	add	r2,r2,r4
   40538:	1100000b 	ldhu	r4,0(r2)
   4053c:	e0bffb17 	ldw	r2,-20(fp)
   40540:	1085883a 	add	r2,r2,r2
   40544:	1085883a 	add	r2,r2,r2
   40548:	100b883a 	mov	r5,r2
   4054c:	e0bffd17 	ldw	r2,-12(fp)
   40550:	1145883a 	add	r2,r2,r5
   40554:	1080000b 	ldhu	r2,0(r2)
   40558:	2085883a 	add	r2,r4,r2
   4055c:	1880000d 	sth	r2,0(r3)
}

void addArrayPointsX(Point a[],Point b[],Point res[],int size)
{
    int i;
    for(i=0; i< size;i++)
   40560:	e0bffb17 	ldw	r2,-20(fp)
   40564:	10800044 	addi	r2,r2,1
   40568:	e0bffb15 	stw	r2,-20(fp)
   4056c:	e0fffb17 	ldw	r3,-20(fp)
   40570:	e0bfff17 	ldw	r2,-4(fp)
   40574:	18bfe416 	blt	r3,r2,40508 <__alt_mem_onchip_memory2_1+0xfffbf508>
    	res[i].x = a[i].x + b[i].x;
}
   40578:	0001883a 	nop
   4057c:	e037883a 	mov	sp,fp
   40580:	df000017 	ldw	fp,0(sp)
   40584:	dec00104 	addi	sp,sp,4
   40588:	f800283a 	ret

0004058c <main>:


int main()
{
   4058c:	defa1c04 	addi	sp,sp,-6032
   40590:	dfc5e315 	stw	ra,6028(sp)
   40594:	df05e215 	stw	fp,6024(sp)
   40598:	df05e204 	addi	fp,sp,6024
	init_button_pio();
   4059c:	00402ec0 	call	402ec <init_button_pio>
	printf("Hello from Nios II!\n");
   405a0:	01000174 	movhi	r4,5
   405a4:	213e5d04 	addi	r4,r4,-1676
   405a8:	00407fc0 	call	407fc <puts>
	if (alt_timestamp_start() < 0) {
   405ac:	004e73c0 	call	4e73c <alt_timestamp_start>
   405b0:	1000030e 	bge	r2,zero,405c0 <main+0x34>
		printf("Timer init failed \n");
   405b4:	01000174 	movhi	r4,5
   405b8:	213e6204 	addi	r4,r4,-1656
   405bc:	00407fc0 	call	407fc <puts>
	}
			//calculate overhead
	int time1 = alt_timestamp();
   405c0:	004e7b40 	call	4e7b4 <alt_timestamp>
   405c4:	e0ba1f15 	stw	r2,-6020(fp)
	int time2 = alt_timestamp();
   405c8:	004e7b40 	call	4e7b4 <alt_timestamp>
   405cc:	e0ba2015 	stw	r2,-6016(fp)
	int num_ticks;
	int timer_overhead = time2 - time1;
   405d0:	e0fa2017 	ldw	r3,-6016(fp)
   405d4:	e0ba1f17 	ldw	r2,-6020(fp)
   405d8:	1885c83a 	sub	r2,r3,r2
   405dc:	e0ba2115 	stw	r2,-6012(fp)
	printf("Number of ticks per second = %u \n", (unsigned int)alt_timestamp_freq());
   405e0:	004e8340 	call	4e834 <alt_timestamp_freq>
   405e4:	100b883a 	mov	r5,r2
   405e8:	01000174 	movhi	r4,5
   405ec:	213e6704 	addi	r4,r4,-1636
   405f0:	00407000 	call	40700 <printf>

	int array_size = MATCHES_NUMBER;
   405f4:	00807d04 	movi	r2,500
   405f8:	e0ba2215 	stw	r2,-6008(fp)
	Point src_points[MATCHES_NUMBER];
	Point dst_points[MATCHES_NUMBER];
	Point u[MATCHES_NUMBER];

	int int_counter = 0;
   405fc:	e03a1e15 	stw	zero,-6024(fp)

	while(1)
			{
				time1 = alt_timestamp();
   40600:	004e7b40 	call	4e7b4 <alt_timestamp>
   40604:	e0ba1f15 	stw	r2,-6020(fp)

				read_on_chip_ram(ONCHIP_MEMORY2_1_BASE, src_points, dst_points);
   40608:	e0fc1804 	addi	r3,fp,-4000
   4060c:	e0ba2404 	addi	r2,fp,-6000
   40610:	180d883a 	mov	r6,r3
   40614:	100b883a 	mov	r5,r2
   40618:	01000234 	movhi	r4,8
   4061c:	21040004 	addi	r4,r4,4096
   40620:	004042c0 	call	4042c <read_on_chip_ram>

				addArrayPointsX(src_points, dst_points, u, array_size);
   40624:	e13e0c04 	addi	r4,fp,-2000
   40628:	e0fc1804 	addi	r3,fp,-4000
   4062c:	e0ba2404 	addi	r2,fp,-6000
   40630:	e1fa2217 	ldw	r7,-6008(fp)
   40634:	200d883a 	mov	r6,r4
   40638:	180b883a 	mov	r5,r3
   4063c:	1009883a 	mov	r4,r2
   40640:	00404e40 	call	404e4 <addArrayPointsX>
				printf("mem x = %x, y = %x\n", src_points[0].y, src_points[0].x);
   40644:	e0ba248b 	ldhu	r2,-5998(fp)
   40648:	10bfffcc 	andi	r2,r2,65535
   4064c:	e0fa240b 	ldhu	r3,-6000(fp)
   40650:	18ffffcc 	andi	r3,r3,65535
   40654:	180d883a 	mov	r6,r3
   40658:	100b883a 	mov	r5,r2
   4065c:	01000174 	movhi	r4,5
   40660:	213e7004 	addi	r4,r4,-1600
   40664:	00407000 	call	40700 <printf>

				time2 = alt_timestamp(); // end timer
   40668:	004e7b40 	call	4e7b4 <alt_timestamp>
   4066c:	e0ba2015 	stw	r2,-6016(fp)

				num_ticks = time2 - time1 - timer_overhead; // calculate number of ticks
   40670:	e0fa2017 	ldw	r3,-6016(fp)
   40674:	e0ba1f17 	ldw	r2,-6020(fp)
   40678:	1887c83a 	sub	r3,r3,r2
   4067c:	e0ba2117 	ldw	r2,-6012(fp)
   40680:	1885c83a 	sub	r2,r3,r2
   40684:	e0ba2315 	stw	r2,-6004(fp)

				printf("Time in ticks = %u \n", (unsigned int)num_ticks);
   40688:	e0ba2317 	ldw	r2,-6004(fp)
   4068c:	100b883a 	mov	r5,r2
   40690:	01000174 	movhi	r4,5
   40694:	213e7504 	addi	r4,r4,-1580
   40698:	00407000 	call	40700 <printf>
				if (edge_capture == 1){
   4069c:	d0a6cb17 	ldw	r2,-25812(gp)
   406a0:	10800058 	cmpnei	r2,r2,1
   406a4:	103fd61e 	bne	r2,zero,40600 <__alt_mem_onchip_memory2_1+0xfffbf600>
					printf("edge_capture count = %d\n", int_counter);
   406a8:	e17a1e17 	ldw	r5,-6024(fp)
   406ac:	01000174 	movhi	r4,5
   406b0:	213e7b04 	addi	r4,r4,-1556
   406b4:	00407000 	call	40700 <printf>
					int_counter++;
   406b8:	e0ba1e17 	ldw	r2,-6024(fp)
   406bc:	10800044 	addi	r2,r2,1
   406c0:	e0ba1e15 	stw	r2,-6024(fp)
					process_no_interrupt();
   406c4:	00403580 	call	40358 <process_no_interrupt>
					edge_capture = 0;
   406c8:	d026cb15 	stw	zero,-25812(gp)

		       //IOWR_ALTERA_AVALON_PIO_DATA(0x81000, count & 0x01);
		   	   //usleep(20000);
		   	   //printf("test.x = %d, test.y = %ld\n", test[0].x , test[0].y );

		   }
   406cc:	003fcc06 	br	40600 <__alt_mem_onchip_memory2_1+0xfffbf600>

000406d0 <_printf_r>:
   406d0:	defffd04 	addi	sp,sp,-12
   406d4:	2805883a 	mov	r2,r5
   406d8:	dfc00015 	stw	ra,0(sp)
   406dc:	d9800115 	stw	r6,4(sp)
   406e0:	d9c00215 	stw	r7,8(sp)
   406e4:	21400217 	ldw	r5,8(r4)
   406e8:	d9c00104 	addi	r7,sp,4
   406ec:	100d883a 	mov	r6,r2
   406f0:	00408a80 	call	408a8 <___vfprintf_internal_r>
   406f4:	dfc00017 	ldw	ra,0(sp)
   406f8:	dec00304 	addi	sp,sp,12
   406fc:	f800283a 	ret

00040700 <printf>:
   40700:	defffc04 	addi	sp,sp,-16
   40704:	dfc00015 	stw	ra,0(sp)
   40708:	d9400115 	stw	r5,4(sp)
   4070c:	d9800215 	stw	r6,8(sp)
   40710:	d9c00315 	stw	r7,12(sp)
   40714:	00800174 	movhi	r2,5
   40718:	1085ee04 	addi	r2,r2,6072
   4071c:	10800017 	ldw	r2,0(r2)
   40720:	200b883a 	mov	r5,r4
   40724:	d9800104 	addi	r6,sp,4
   40728:	11000217 	ldw	r4,8(r2)
   4072c:	0042aa00 	call	42aa0 <__vfprintf_internal>
   40730:	dfc00017 	ldw	ra,0(sp)
   40734:	dec00404 	addi	sp,sp,16
   40738:	f800283a 	ret

0004073c <_puts_r>:
   4073c:	defff604 	addi	sp,sp,-40
   40740:	dc000715 	stw	r16,28(sp)
   40744:	2021883a 	mov	r16,r4
   40748:	2809883a 	mov	r4,r5
   4074c:	dc400815 	stw	r17,32(sp)
   40750:	dfc00915 	stw	ra,36(sp)
   40754:	2823883a 	mov	r17,r5
   40758:	00408100 	call	40810 <strlen>
   4075c:	10c00044 	addi	r3,r2,1
   40760:	d8800115 	stw	r2,4(sp)
   40764:	00800174 	movhi	r2,5
   40768:	10be8204 	addi	r2,r2,-1528
   4076c:	d8800215 	stw	r2,8(sp)
   40770:	00800044 	movi	r2,1
   40774:	d8800315 	stw	r2,12(sp)
   40778:	00800084 	movi	r2,2
   4077c:	dc400015 	stw	r17,0(sp)
   40780:	d8c00615 	stw	r3,24(sp)
   40784:	dec00415 	stw	sp,16(sp)
   40788:	d8800515 	stw	r2,20(sp)
   4078c:	80000226 	beq	r16,zero,40798 <_puts_r+0x5c>
   40790:	80800e17 	ldw	r2,56(r16)
   40794:	10001426 	beq	r2,zero,407e8 <_puts_r+0xac>
   40798:	81400217 	ldw	r5,8(r16)
   4079c:	2880030b 	ldhu	r2,12(r5)
   407a0:	10c8000c 	andi	r3,r2,8192
   407a4:	1800061e 	bne	r3,zero,407c0 <_puts_r+0x84>
   407a8:	29001917 	ldw	r4,100(r5)
   407ac:	00f7ffc4 	movi	r3,-8193
   407b0:	10880014 	ori	r2,r2,8192
   407b4:	20c6703a 	and	r3,r4,r3
   407b8:	2880030d 	sth	r2,12(r5)
   407bc:	28c01915 	stw	r3,100(r5)
   407c0:	d9800404 	addi	r6,sp,16
   407c4:	8009883a 	mov	r4,r16
   407c8:	0044fd00 	call	44fd0 <__sfvwrite_r>
   407cc:	1000091e 	bne	r2,zero,407f4 <_puts_r+0xb8>
   407d0:	00800284 	movi	r2,10
   407d4:	dfc00917 	ldw	ra,36(sp)
   407d8:	dc400817 	ldw	r17,32(sp)
   407dc:	dc000717 	ldw	r16,28(sp)
   407e0:	dec00a04 	addi	sp,sp,40
   407e4:	f800283a 	ret
   407e8:	8009883a 	mov	r4,r16
   407ec:	0044b4c0 	call	44b4c <__sinit>
   407f0:	003fe906 	br	40798 <__alt_mem_onchip_memory2_1+0xfffbf798>
   407f4:	00bfffc4 	movi	r2,-1
   407f8:	003ff606 	br	407d4 <__alt_mem_onchip_memory2_1+0xfffbf7d4>

000407fc <puts>:
   407fc:	00800174 	movhi	r2,5
   40800:	1085ee04 	addi	r2,r2,6072
   40804:	200b883a 	mov	r5,r4
   40808:	11000017 	ldw	r4,0(r2)
   4080c:	004073c1 	jmpi	4073c <_puts_r>

00040810 <strlen>:
   40810:	208000cc 	andi	r2,r4,3
   40814:	10002026 	beq	r2,zero,40898 <strlen+0x88>
   40818:	20800007 	ldb	r2,0(r4)
   4081c:	10002026 	beq	r2,zero,408a0 <strlen+0x90>
   40820:	2005883a 	mov	r2,r4
   40824:	00000206 	br	40830 <strlen+0x20>
   40828:	10c00007 	ldb	r3,0(r2)
   4082c:	18001826 	beq	r3,zero,40890 <strlen+0x80>
   40830:	10800044 	addi	r2,r2,1
   40834:	10c000cc 	andi	r3,r2,3
   40838:	183ffb1e 	bne	r3,zero,40828 <__alt_mem_onchip_memory2_1+0xfffbf828>
   4083c:	10c00017 	ldw	r3,0(r2)
   40840:	01ffbff4 	movhi	r7,65279
   40844:	39ffbfc4 	addi	r7,r7,-257
   40848:	00ca303a 	nor	r5,zero,r3
   4084c:	01a02074 	movhi	r6,32897
   40850:	19c7883a 	add	r3,r3,r7
   40854:	31a02004 	addi	r6,r6,-32640
   40858:	1946703a 	and	r3,r3,r5
   4085c:	1986703a 	and	r3,r3,r6
   40860:	1800091e 	bne	r3,zero,40888 <strlen+0x78>
   40864:	10800104 	addi	r2,r2,4
   40868:	10c00017 	ldw	r3,0(r2)
   4086c:	19cb883a 	add	r5,r3,r7
   40870:	00c6303a 	nor	r3,zero,r3
   40874:	28c6703a 	and	r3,r5,r3
   40878:	1986703a 	and	r3,r3,r6
   4087c:	183ff926 	beq	r3,zero,40864 <__alt_mem_onchip_memory2_1+0xfffbf864>
   40880:	00000106 	br	40888 <strlen+0x78>
   40884:	10800044 	addi	r2,r2,1
   40888:	10c00007 	ldb	r3,0(r2)
   4088c:	183ffd1e 	bne	r3,zero,40884 <__alt_mem_onchip_memory2_1+0xfffbf884>
   40890:	1105c83a 	sub	r2,r2,r4
   40894:	f800283a 	ret
   40898:	2005883a 	mov	r2,r4
   4089c:	003fe706 	br	4083c <__alt_mem_onchip_memory2_1+0xfffbf83c>
   408a0:	0005883a 	mov	r2,zero
   408a4:	f800283a 	ret

000408a8 <___vfprintf_internal_r>:
   408a8:	deffb804 	addi	sp,sp,-288
   408ac:	dfc04715 	stw	ra,284(sp)
   408b0:	ddc04515 	stw	r23,276(sp)
   408b4:	dd404315 	stw	r21,268(sp)
   408b8:	d9002c15 	stw	r4,176(sp)
   408bc:	282f883a 	mov	r23,r5
   408c0:	302b883a 	mov	r21,r6
   408c4:	d9c02d15 	stw	r7,180(sp)
   408c8:	df004615 	stw	fp,280(sp)
   408cc:	dd804415 	stw	r22,272(sp)
   408d0:	dd004215 	stw	r20,264(sp)
   408d4:	dcc04115 	stw	r19,260(sp)
   408d8:	dc804015 	stw	r18,256(sp)
   408dc:	dc403f15 	stw	r17,252(sp)
   408e0:	dc003e15 	stw	r16,248(sp)
   408e4:	00456c00 	call	456c0 <_localeconv_r>
   408e8:	10800017 	ldw	r2,0(r2)
   408ec:	1009883a 	mov	r4,r2
   408f0:	d8803415 	stw	r2,208(sp)
   408f4:	00408100 	call	40810 <strlen>
   408f8:	d8803715 	stw	r2,220(sp)
   408fc:	d8802c17 	ldw	r2,176(sp)
   40900:	10000226 	beq	r2,zero,4090c <___vfprintf_internal_r+0x64>
   40904:	10800e17 	ldw	r2,56(r2)
   40908:	1000f926 	beq	r2,zero,40cf0 <___vfprintf_internal_r+0x448>
   4090c:	b880030b 	ldhu	r2,12(r23)
   40910:	10c8000c 	andi	r3,r2,8192
   40914:	1800061e 	bne	r3,zero,40930 <___vfprintf_internal_r+0x88>
   40918:	b9001917 	ldw	r4,100(r23)
   4091c:	00f7ffc4 	movi	r3,-8193
   40920:	10880014 	ori	r2,r2,8192
   40924:	20c6703a 	and	r3,r4,r3
   40928:	b880030d 	sth	r2,12(r23)
   4092c:	b8c01915 	stw	r3,100(r23)
   40930:	10c0020c 	andi	r3,r2,8
   40934:	1800c126 	beq	r3,zero,40c3c <___vfprintf_internal_r+0x394>
   40938:	b8c00417 	ldw	r3,16(r23)
   4093c:	1800bf26 	beq	r3,zero,40c3c <___vfprintf_internal_r+0x394>
   40940:	1080068c 	andi	r2,r2,26
   40944:	00c00284 	movi	r3,10
   40948:	10c0c426 	beq	r2,r3,40c5c <___vfprintf_internal_r+0x3b4>
   4094c:	d8c00404 	addi	r3,sp,16
   40950:	05000174 	movhi	r20,5
   40954:	d9001e04 	addi	r4,sp,120
   40958:	a53e9384 	addi	r20,r20,-1458
   4095c:	d8c01e15 	stw	r3,120(sp)
   40960:	d8002015 	stw	zero,128(sp)
   40964:	d8001f15 	stw	zero,124(sp)
   40968:	d8003315 	stw	zero,204(sp)
   4096c:	d8003615 	stw	zero,216(sp)
   40970:	d8003815 	stw	zero,224(sp)
   40974:	1811883a 	mov	r8,r3
   40978:	d8003915 	stw	zero,228(sp)
   4097c:	d8003a15 	stw	zero,232(sp)
   40980:	d8002f15 	stw	zero,188(sp)
   40984:	d9002815 	stw	r4,160(sp)
   40988:	a8800007 	ldb	r2,0(r21)
   4098c:	10027b26 	beq	r2,zero,4137c <___vfprintf_internal_r+0xad4>
   40990:	00c00944 	movi	r3,37
   40994:	a821883a 	mov	r16,r21
   40998:	10c0021e 	bne	r2,r3,409a4 <___vfprintf_internal_r+0xfc>
   4099c:	00001406 	br	409f0 <___vfprintf_internal_r+0x148>
   409a0:	10c00326 	beq	r2,r3,409b0 <___vfprintf_internal_r+0x108>
   409a4:	84000044 	addi	r16,r16,1
   409a8:	80800007 	ldb	r2,0(r16)
   409ac:	103ffc1e 	bne	r2,zero,409a0 <__alt_mem_onchip_memory2_1+0xfffbf9a0>
   409b0:	8563c83a 	sub	r17,r16,r21
   409b4:	88000e26 	beq	r17,zero,409f0 <___vfprintf_internal_r+0x148>
   409b8:	d8c02017 	ldw	r3,128(sp)
   409bc:	d8801f17 	ldw	r2,124(sp)
   409c0:	45400015 	stw	r21,0(r8)
   409c4:	1c47883a 	add	r3,r3,r17
   409c8:	10800044 	addi	r2,r2,1
   409cc:	d8c02015 	stw	r3,128(sp)
   409d0:	44400115 	stw	r17,4(r8)
   409d4:	d8801f15 	stw	r2,124(sp)
   409d8:	00c001c4 	movi	r3,7
   409dc:	1880a716 	blt	r3,r2,40c7c <___vfprintf_internal_r+0x3d4>
   409e0:	42000204 	addi	r8,r8,8
   409e4:	d9402f17 	ldw	r5,188(sp)
   409e8:	2c4b883a 	add	r5,r5,r17
   409ec:	d9402f15 	stw	r5,188(sp)
   409f0:	80800007 	ldb	r2,0(r16)
   409f4:	1000a826 	beq	r2,zero,40c98 <___vfprintf_internal_r+0x3f0>
   409f8:	84400047 	ldb	r17,1(r16)
   409fc:	00bfffc4 	movi	r2,-1
   40a00:	85400044 	addi	r21,r16,1
   40a04:	d8002785 	stb	zero,158(sp)
   40a08:	0007883a 	mov	r3,zero
   40a0c:	000f883a 	mov	r7,zero
   40a10:	d8802915 	stw	r2,164(sp)
   40a14:	d8003115 	stw	zero,196(sp)
   40a18:	0025883a 	mov	r18,zero
   40a1c:	01401604 	movi	r5,88
   40a20:	01800244 	movi	r6,9
   40a24:	02800a84 	movi	r10,42
   40a28:	02401b04 	movi	r9,108
   40a2c:	ad400044 	addi	r21,r21,1
   40a30:	88bff804 	addi	r2,r17,-32
   40a34:	28830436 	bltu	r5,r2,41648 <___vfprintf_internal_r+0xda0>
   40a38:	100490ba 	slli	r2,r2,2
   40a3c:	01000134 	movhi	r4,4
   40a40:	21029404 	addi	r4,r4,2640
   40a44:	1105883a 	add	r2,r2,r4
   40a48:	10800017 	ldw	r2,0(r2)
   40a4c:	1000683a 	jmp	r2
   40a50:	00041568 	cmpgeui	zero,zero,4181
   40a54:	00041648 	cmpgei	zero,zero,4185
   40a58:	00041648 	cmpgei	zero,zero,4185
   40a5c:	00041588 	cmpgei	zero,zero,4182
   40a60:	00041648 	cmpgei	zero,zero,4185
   40a64:	00041648 	cmpgei	zero,zero,4185
   40a68:	00041648 	cmpgei	zero,zero,4185
   40a6c:	00041648 	cmpgei	zero,zero,4185
   40a70:	00041648 	cmpgei	zero,zero,4185
   40a74:	00041648 	cmpgei	zero,zero,4185
   40a78:	00040cfc 	xorhi	zero,zero,4147
   40a7c:	000414a4 	muli	zero,zero,4178
   40a80:	00041648 	cmpgei	zero,zero,4185
   40a84:	00040bc4 	movi	zero,4143
   40a88:	00040d24 	muli	zero,zero,4148
   40a8c:	00041648 	cmpgei	zero,zero,4185
   40a90:	00040d64 	muli	zero,zero,4149
   40a94:	00040d70 	cmpltui	zero,zero,4149
   40a98:	00040d70 	cmpltui	zero,zero,4149
   40a9c:	00040d70 	cmpltui	zero,zero,4149
   40aa0:	00040d70 	cmpltui	zero,zero,4149
   40aa4:	00040d70 	cmpltui	zero,zero,4149
   40aa8:	00040d70 	cmpltui	zero,zero,4149
   40aac:	00040d70 	cmpltui	zero,zero,4149
   40ab0:	00040d70 	cmpltui	zero,zero,4149
   40ab4:	00040d70 	cmpltui	zero,zero,4149
   40ab8:	00041648 	cmpgei	zero,zero,4185
   40abc:	00041648 	cmpgei	zero,zero,4185
   40ac0:	00041648 	cmpgei	zero,zero,4185
   40ac4:	00041648 	cmpgei	zero,zero,4185
   40ac8:	00041648 	cmpgei	zero,zero,4185
   40acc:	00041648 	cmpgei	zero,zero,4185
   40ad0:	00041648 	cmpgei	zero,zero,4185
   40ad4:	00041648 	cmpgei	zero,zero,4185
   40ad8:	00041648 	cmpgei	zero,zero,4185
   40adc:	00041648 	cmpgei	zero,zero,4185
   40ae0:	00040da4 	muli	zero,zero,4150
   40ae4:	00040e60 	cmpeqi	zero,zero,4153
   40ae8:	00041648 	cmpgei	zero,zero,4185
   40aec:	00040e60 	cmpeqi	zero,zero,4153
   40af0:	00041648 	cmpgei	zero,zero,4185
   40af4:	00041648 	cmpgei	zero,zero,4185
   40af8:	00041648 	cmpgei	zero,zero,4185
   40afc:	00041648 	cmpgei	zero,zero,4185
   40b00:	00040f00 	call	40f0 <__reset-0x3bf10>
   40b04:	00041648 	cmpgei	zero,zero,4185
   40b08:	00041648 	cmpgei	zero,zero,4185
   40b0c:	00040f0c 	andi	zero,zero,4156
   40b10:	00041648 	cmpgei	zero,zero,4185
   40b14:	00041648 	cmpgei	zero,zero,4185
   40b18:	00041648 	cmpgei	zero,zero,4185
   40b1c:	00041648 	cmpgei	zero,zero,4185
   40b20:	00041648 	cmpgei	zero,zero,4185
   40b24:	00041384 	movi	zero,4174
   40b28:	00041648 	cmpgei	zero,zero,4185
   40b2c:	00041648 	cmpgei	zero,zero,4185
   40b30:	000413e4 	muli	zero,zero,4175
   40b34:	00041648 	cmpgei	zero,zero,4185
   40b38:	00041648 	cmpgei	zero,zero,4185
   40b3c:	00041648 	cmpgei	zero,zero,4185
   40b40:	00041648 	cmpgei	zero,zero,4185
   40b44:	00041648 	cmpgei	zero,zero,4185
   40b48:	00041648 	cmpgei	zero,zero,4185
   40b4c:	00041648 	cmpgei	zero,zero,4185
   40b50:	00041648 	cmpgei	zero,zero,4185
   40b54:	00041648 	cmpgei	zero,zero,4185
   40b58:	00041648 	cmpgei	zero,zero,4185
   40b5c:	000415f4 	movhi	zero,4183
   40b60:	00041594 	movui	zero,4182
   40b64:	00040e60 	cmpeqi	zero,zero,4153
   40b68:	00040e60 	cmpeqi	zero,zero,4153
   40b6c:	00040e60 	cmpeqi	zero,zero,4153
   40b70:	000415a4 	muli	zero,zero,4182
   40b74:	00041594 	movui	zero,4182
   40b78:	00041648 	cmpgei	zero,zero,4185
   40b7c:	00041648 	cmpgei	zero,zero,4185
   40b80:	000415b0 	cmpltui	zero,zero,4182
   40b84:	00041648 	cmpgei	zero,zero,4185
   40b88:	000415c0 	call	415c <__reset-0x3bea4>
   40b8c:	00041494 	movui	zero,4178
   40b90:	00040bd0 	cmplti	zero,zero,4143
   40b94:	000414b4 	movhi	zero,4178
   40b98:	00041648 	cmpgei	zero,zero,4185
   40b9c:	000414c0 	call	414c <__reset-0x3beb4>
   40ba0:	00041648 	cmpgei	zero,zero,4185
   40ba4:	0004151c 	xori	zero,zero,4180
   40ba8:	00041648 	cmpgei	zero,zero,4185
   40bac:	00041648 	cmpgei	zero,zero,4185
   40bb0:	0004152c 	andhi	zero,zero,4180
   40bb4:	d9003117 	ldw	r4,196(sp)
   40bb8:	d8802d15 	stw	r2,180(sp)
   40bbc:	0109c83a 	sub	r4,zero,r4
   40bc0:	d9003115 	stw	r4,196(sp)
   40bc4:	94800114 	ori	r18,r18,4
   40bc8:	ac400007 	ldb	r17,0(r21)
   40bcc:	003f9706 	br	40a2c <__alt_mem_onchip_memory2_1+0xfffbfa2c>
   40bd0:	00800c04 	movi	r2,48
   40bd4:	d9002d17 	ldw	r4,180(sp)
   40bd8:	d9402917 	ldw	r5,164(sp)
   40bdc:	d8802705 	stb	r2,156(sp)
   40be0:	00801e04 	movi	r2,120
   40be4:	d8802745 	stb	r2,157(sp)
   40be8:	d8002785 	stb	zero,158(sp)
   40bec:	20c00104 	addi	r3,r4,4
   40bf0:	24c00017 	ldw	r19,0(r4)
   40bf4:	002d883a 	mov	r22,zero
   40bf8:	90800094 	ori	r2,r18,2
   40bfc:	28029a16 	blt	r5,zero,41668 <___vfprintf_internal_r+0xdc0>
   40c00:	00bfdfc4 	movi	r2,-129
   40c04:	90a4703a 	and	r18,r18,r2
   40c08:	d8c02d15 	stw	r3,180(sp)
   40c0c:	94800094 	ori	r18,r18,2
   40c10:	9802871e 	bne	r19,zero,41630 <___vfprintf_internal_r+0xd88>
   40c14:	00800174 	movhi	r2,5
   40c18:	10be8c04 	addi	r2,r2,-1488
   40c1c:	d8803915 	stw	r2,228(sp)
   40c20:	04401e04 	movi	r17,120
   40c24:	d8802917 	ldw	r2,164(sp)
   40c28:	0039883a 	mov	fp,zero
   40c2c:	1001e926 	beq	r2,zero,413d4 <___vfprintf_internal_r+0xb2c>
   40c30:	0027883a 	mov	r19,zero
   40c34:	002d883a 	mov	r22,zero
   40c38:	00020506 	br	41450 <___vfprintf_internal_r+0xba8>
   40c3c:	d9002c17 	ldw	r4,176(sp)
   40c40:	b80b883a 	mov	r5,r23
   40c44:	0042b780 	call	42b78 <__swsetup_r>
   40c48:	1005ac1e 	bne	r2,zero,422fc <___vfprintf_internal_r+0x1a54>
   40c4c:	b880030b 	ldhu	r2,12(r23)
   40c50:	00c00284 	movi	r3,10
   40c54:	1080068c 	andi	r2,r2,26
   40c58:	10ff3c1e 	bne	r2,r3,4094c <__alt_mem_onchip_memory2_1+0xfffbf94c>
   40c5c:	b880038f 	ldh	r2,14(r23)
   40c60:	103f3a16 	blt	r2,zero,4094c <__alt_mem_onchip_memory2_1+0xfffbf94c>
   40c64:	d9c02d17 	ldw	r7,180(sp)
   40c68:	d9002c17 	ldw	r4,176(sp)
   40c6c:	a80d883a 	mov	r6,r21
   40c70:	b80b883a 	mov	r5,r23
   40c74:	0042abc0 	call	42abc <__sbprintf>
   40c78:	00001106 	br	40cc0 <___vfprintf_internal_r+0x418>
   40c7c:	d9002c17 	ldw	r4,176(sp)
   40c80:	d9801e04 	addi	r6,sp,120
   40c84:	b80b883a 	mov	r5,r23
   40c88:	0047ea40 	call	47ea4 <__sprint_r>
   40c8c:	1000081e 	bne	r2,zero,40cb0 <___vfprintf_internal_r+0x408>
   40c90:	da000404 	addi	r8,sp,16
   40c94:	003f5306 	br	409e4 <__alt_mem_onchip_memory2_1+0xfffbf9e4>
   40c98:	d8802017 	ldw	r2,128(sp)
   40c9c:	10000426 	beq	r2,zero,40cb0 <___vfprintf_internal_r+0x408>
   40ca0:	d9002c17 	ldw	r4,176(sp)
   40ca4:	d9801e04 	addi	r6,sp,120
   40ca8:	b80b883a 	mov	r5,r23
   40cac:	0047ea40 	call	47ea4 <__sprint_r>
   40cb0:	b880030b 	ldhu	r2,12(r23)
   40cb4:	1080100c 	andi	r2,r2,64
   40cb8:	1005901e 	bne	r2,zero,422fc <___vfprintf_internal_r+0x1a54>
   40cbc:	d8802f17 	ldw	r2,188(sp)
   40cc0:	dfc04717 	ldw	ra,284(sp)
   40cc4:	df004617 	ldw	fp,280(sp)
   40cc8:	ddc04517 	ldw	r23,276(sp)
   40ccc:	dd804417 	ldw	r22,272(sp)
   40cd0:	dd404317 	ldw	r21,268(sp)
   40cd4:	dd004217 	ldw	r20,264(sp)
   40cd8:	dcc04117 	ldw	r19,260(sp)
   40cdc:	dc804017 	ldw	r18,256(sp)
   40ce0:	dc403f17 	ldw	r17,252(sp)
   40ce4:	dc003e17 	ldw	r16,248(sp)
   40ce8:	dec04804 	addi	sp,sp,288
   40cec:	f800283a 	ret
   40cf0:	d9002c17 	ldw	r4,176(sp)
   40cf4:	0044b4c0 	call	44b4c <__sinit>
   40cf8:	003f0406 	br	4090c <__alt_mem_onchip_memory2_1+0xfffbf90c>
   40cfc:	d8802d17 	ldw	r2,180(sp)
   40d00:	d9002d17 	ldw	r4,180(sp)
   40d04:	10800017 	ldw	r2,0(r2)
   40d08:	d8803115 	stw	r2,196(sp)
   40d0c:	20800104 	addi	r2,r4,4
   40d10:	d9003117 	ldw	r4,196(sp)
   40d14:	203fa716 	blt	r4,zero,40bb4 <__alt_mem_onchip_memory2_1+0xfffbfbb4>
   40d18:	d8802d15 	stw	r2,180(sp)
   40d1c:	ac400007 	ldb	r17,0(r21)
   40d20:	003f4206 	br	40a2c <__alt_mem_onchip_memory2_1+0xfffbfa2c>
   40d24:	ac400007 	ldb	r17,0(r21)
   40d28:	aac00044 	addi	r11,r21,1
   40d2c:	8a872826 	beq	r17,r10,429d0 <___vfprintf_internal_r+0x2128>
   40d30:	88bff404 	addi	r2,r17,-48
   40d34:	0009883a 	mov	r4,zero
   40d38:	30867d36 	bltu	r6,r2,42730 <___vfprintf_internal_r+0x1e88>
   40d3c:	5c400007 	ldb	r17,0(r11)
   40d40:	210002a4 	muli	r4,r4,10
   40d44:	5d400044 	addi	r21,r11,1
   40d48:	a817883a 	mov	r11,r21
   40d4c:	2089883a 	add	r4,r4,r2
   40d50:	88bff404 	addi	r2,r17,-48
   40d54:	30bff92e 	bgeu	r6,r2,40d3c <__alt_mem_onchip_memory2_1+0xfffbfd3c>
   40d58:	2005c916 	blt	r4,zero,42480 <___vfprintf_internal_r+0x1bd8>
   40d5c:	d9002915 	stw	r4,164(sp)
   40d60:	003f3306 	br	40a30 <__alt_mem_onchip_memory2_1+0xfffbfa30>
   40d64:	94802014 	ori	r18,r18,128
   40d68:	ac400007 	ldb	r17,0(r21)
   40d6c:	003f2f06 	br	40a2c <__alt_mem_onchip_memory2_1+0xfffbfa2c>
   40d70:	a809883a 	mov	r4,r21
   40d74:	d8003115 	stw	zero,196(sp)
   40d78:	88bff404 	addi	r2,r17,-48
   40d7c:	0017883a 	mov	r11,zero
   40d80:	24400007 	ldb	r17,0(r4)
   40d84:	5ac002a4 	muli	r11,r11,10
   40d88:	ad400044 	addi	r21,r21,1
   40d8c:	a809883a 	mov	r4,r21
   40d90:	12d7883a 	add	r11,r2,r11
   40d94:	88bff404 	addi	r2,r17,-48
   40d98:	30bff92e 	bgeu	r6,r2,40d80 <__alt_mem_onchip_memory2_1+0xfffbfd80>
   40d9c:	dac03115 	stw	r11,196(sp)
   40da0:	003f2306 	br	40a30 <__alt_mem_onchip_memory2_1+0xfffbfa30>
   40da4:	18c03fcc 	andi	r3,r3,255
   40da8:	18072b1e 	bne	r3,zero,42a58 <___vfprintf_internal_r+0x21b0>
   40dac:	94800414 	ori	r18,r18,16
   40db0:	9080080c 	andi	r2,r18,32
   40db4:	10037b26 	beq	r2,zero,41ba4 <___vfprintf_internal_r+0x12fc>
   40db8:	d9402d17 	ldw	r5,180(sp)
   40dbc:	28800117 	ldw	r2,4(r5)
   40dc0:	2cc00017 	ldw	r19,0(r5)
   40dc4:	29400204 	addi	r5,r5,8
   40dc8:	d9402d15 	stw	r5,180(sp)
   40dcc:	102d883a 	mov	r22,r2
   40dd0:	10044b16 	blt	r2,zero,41f00 <___vfprintf_internal_r+0x1658>
   40dd4:	d9402917 	ldw	r5,164(sp)
   40dd8:	df002783 	ldbu	fp,158(sp)
   40ddc:	2803bc16 	blt	r5,zero,41cd0 <___vfprintf_internal_r+0x1428>
   40de0:	00ffdfc4 	movi	r3,-129
   40de4:	9d84b03a 	or	r2,r19,r22
   40de8:	90e4703a 	and	r18,r18,r3
   40dec:	10017726 	beq	r2,zero,413cc <___vfprintf_internal_r+0xb24>
   40df0:	b0038326 	beq	r22,zero,41c00 <___vfprintf_internal_r+0x1358>
   40df4:	dc402a15 	stw	r17,168(sp)
   40df8:	dc001e04 	addi	r16,sp,120
   40dfc:	b023883a 	mov	r17,r22
   40e00:	402d883a 	mov	r22,r8
   40e04:	9809883a 	mov	r4,r19
   40e08:	880b883a 	mov	r5,r17
   40e0c:	01800284 	movi	r6,10
   40e10:	000f883a 	mov	r7,zero
   40e14:	004a29c0 	call	4a29c <__umoddi3>
   40e18:	10800c04 	addi	r2,r2,48
   40e1c:	843fffc4 	addi	r16,r16,-1
   40e20:	9809883a 	mov	r4,r19
   40e24:	880b883a 	mov	r5,r17
   40e28:	80800005 	stb	r2,0(r16)
   40e2c:	01800284 	movi	r6,10
   40e30:	000f883a 	mov	r7,zero
   40e34:	0049d240 	call	49d24 <__udivdi3>
   40e38:	1027883a 	mov	r19,r2
   40e3c:	10c4b03a 	or	r2,r2,r3
   40e40:	1823883a 	mov	r17,r3
   40e44:	103fef1e 	bne	r2,zero,40e04 <__alt_mem_onchip_memory2_1+0xfffbfe04>
   40e48:	d8c02817 	ldw	r3,160(sp)
   40e4c:	dc402a17 	ldw	r17,168(sp)
   40e50:	b011883a 	mov	r8,r22
   40e54:	1c07c83a 	sub	r3,r3,r16
   40e58:	d8c02e15 	stw	r3,184(sp)
   40e5c:	00005906 	br	40fc4 <___vfprintf_internal_r+0x71c>
   40e60:	18c03fcc 	andi	r3,r3,255
   40e64:	1806fa1e 	bne	r3,zero,42a50 <___vfprintf_internal_r+0x21a8>
   40e68:	9080020c 	andi	r2,r18,8
   40e6c:	10048a26 	beq	r2,zero,42098 <___vfprintf_internal_r+0x17f0>
   40e70:	d8c02d17 	ldw	r3,180(sp)
   40e74:	d9002d17 	ldw	r4,180(sp)
   40e78:	d9402d17 	ldw	r5,180(sp)
   40e7c:	18c00017 	ldw	r3,0(r3)
   40e80:	21000117 	ldw	r4,4(r4)
   40e84:	29400204 	addi	r5,r5,8
   40e88:	d8c03615 	stw	r3,216(sp)
   40e8c:	d9003815 	stw	r4,224(sp)
   40e90:	d9402d15 	stw	r5,180(sp)
   40e94:	d9003617 	ldw	r4,216(sp)
   40e98:	d9403817 	ldw	r5,224(sp)
   40e9c:	da003d15 	stw	r8,244(sp)
   40ea0:	04000044 	movi	r16,1
   40ea4:	0047ac80 	call	47ac8 <__fpclassifyd>
   40ea8:	da003d17 	ldw	r8,244(sp)
   40eac:	14041f1e 	bne	r2,r16,41f2c <___vfprintf_internal_r+0x1684>
   40eb0:	d9003617 	ldw	r4,216(sp)
   40eb4:	d9403817 	ldw	r5,224(sp)
   40eb8:	000d883a 	mov	r6,zero
   40ebc:	000f883a 	mov	r7,zero
   40ec0:	004bc800 	call	4bc80 <__ledf2>
   40ec4:	da003d17 	ldw	r8,244(sp)
   40ec8:	1005be16 	blt	r2,zero,425c4 <___vfprintf_internal_r+0x1d1c>
   40ecc:	df002783 	ldbu	fp,158(sp)
   40ed0:	008011c4 	movi	r2,71
   40ed4:	1445330e 	bge	r2,r17,423a4 <___vfprintf_internal_r+0x1afc>
   40ed8:	04000174 	movhi	r16,5
   40edc:	843e8404 	addi	r16,r16,-1520
   40ee0:	00c000c4 	movi	r3,3
   40ee4:	00bfdfc4 	movi	r2,-129
   40ee8:	d8c02a15 	stw	r3,168(sp)
   40eec:	90a4703a 	and	r18,r18,r2
   40ef0:	d8c02e15 	stw	r3,184(sp)
   40ef4:	d8002915 	stw	zero,164(sp)
   40ef8:	d8003215 	stw	zero,200(sp)
   40efc:	00003706 	br	40fdc <___vfprintf_internal_r+0x734>
   40f00:	94800214 	ori	r18,r18,8
   40f04:	ac400007 	ldb	r17,0(r21)
   40f08:	003ec806 	br	40a2c <__alt_mem_onchip_memory2_1+0xfffbfa2c>
   40f0c:	18c03fcc 	andi	r3,r3,255
   40f10:	1806db1e 	bne	r3,zero,42a80 <___vfprintf_internal_r+0x21d8>
   40f14:	94800414 	ori	r18,r18,16
   40f18:	9080080c 	andi	r2,r18,32
   40f1c:	1002d826 	beq	r2,zero,41a80 <___vfprintf_internal_r+0x11d8>
   40f20:	d9402d17 	ldw	r5,180(sp)
   40f24:	d8c02917 	ldw	r3,164(sp)
   40f28:	d8002785 	stb	zero,158(sp)
   40f2c:	28800204 	addi	r2,r5,8
   40f30:	2cc00017 	ldw	r19,0(r5)
   40f34:	2d800117 	ldw	r22,4(r5)
   40f38:	18048f16 	blt	r3,zero,42178 <___vfprintf_internal_r+0x18d0>
   40f3c:	013fdfc4 	movi	r4,-129
   40f40:	9d86b03a 	or	r3,r19,r22
   40f44:	d8802d15 	stw	r2,180(sp)
   40f48:	9124703a 	and	r18,r18,r4
   40f4c:	1802d91e 	bne	r3,zero,41ab4 <___vfprintf_internal_r+0x120c>
   40f50:	d8c02917 	ldw	r3,164(sp)
   40f54:	0039883a 	mov	fp,zero
   40f58:	1805c326 	beq	r3,zero,42668 <___vfprintf_internal_r+0x1dc0>
   40f5c:	0027883a 	mov	r19,zero
   40f60:	002d883a 	mov	r22,zero
   40f64:	dc001e04 	addi	r16,sp,120
   40f68:	9806d0fa 	srli	r3,r19,3
   40f6c:	b008977a 	slli	r4,r22,29
   40f70:	b02cd0fa 	srli	r22,r22,3
   40f74:	9cc001cc 	andi	r19,r19,7
   40f78:	98800c04 	addi	r2,r19,48
   40f7c:	843fffc4 	addi	r16,r16,-1
   40f80:	20e6b03a 	or	r19,r4,r3
   40f84:	80800005 	stb	r2,0(r16)
   40f88:	9d86b03a 	or	r3,r19,r22
   40f8c:	183ff61e 	bne	r3,zero,40f68 <__alt_mem_onchip_memory2_1+0xfffbff68>
   40f90:	90c0004c 	andi	r3,r18,1
   40f94:	18013b26 	beq	r3,zero,41484 <___vfprintf_internal_r+0xbdc>
   40f98:	10803fcc 	andi	r2,r2,255
   40f9c:	1080201c 	xori	r2,r2,128
   40fa0:	10bfe004 	addi	r2,r2,-128
   40fa4:	00c00c04 	movi	r3,48
   40fa8:	10c13626 	beq	r2,r3,41484 <___vfprintf_internal_r+0xbdc>
   40fac:	80ffffc5 	stb	r3,-1(r16)
   40fb0:	d8c02817 	ldw	r3,160(sp)
   40fb4:	80bfffc4 	addi	r2,r16,-1
   40fb8:	1021883a 	mov	r16,r2
   40fbc:	1887c83a 	sub	r3,r3,r2
   40fc0:	d8c02e15 	stw	r3,184(sp)
   40fc4:	d8802e17 	ldw	r2,184(sp)
   40fc8:	d9002917 	ldw	r4,164(sp)
   40fcc:	1100010e 	bge	r2,r4,40fd4 <___vfprintf_internal_r+0x72c>
   40fd0:	2005883a 	mov	r2,r4
   40fd4:	d8802a15 	stw	r2,168(sp)
   40fd8:	d8003215 	stw	zero,200(sp)
   40fdc:	e7003fcc 	andi	fp,fp,255
   40fe0:	e700201c 	xori	fp,fp,128
   40fe4:	e73fe004 	addi	fp,fp,-128
   40fe8:	e0000326 	beq	fp,zero,40ff8 <___vfprintf_internal_r+0x750>
   40fec:	d8c02a17 	ldw	r3,168(sp)
   40ff0:	18c00044 	addi	r3,r3,1
   40ff4:	d8c02a15 	stw	r3,168(sp)
   40ff8:	90c0008c 	andi	r3,r18,2
   40ffc:	d8c02b15 	stw	r3,172(sp)
   41000:	18000326 	beq	r3,zero,41010 <___vfprintf_internal_r+0x768>
   41004:	d8c02a17 	ldw	r3,168(sp)
   41008:	18c00084 	addi	r3,r3,2
   4100c:	d8c02a15 	stw	r3,168(sp)
   41010:	90c0210c 	andi	r3,r18,132
   41014:	d8c03015 	stw	r3,192(sp)
   41018:	1801a31e 	bne	r3,zero,416a8 <___vfprintf_internal_r+0xe00>
   4101c:	d9003117 	ldw	r4,196(sp)
   41020:	d8c02a17 	ldw	r3,168(sp)
   41024:	20e7c83a 	sub	r19,r4,r3
   41028:	04c19f0e 	bge	zero,r19,416a8 <___vfprintf_internal_r+0xe00>
   4102c:	02400404 	movi	r9,16
   41030:	d8c02017 	ldw	r3,128(sp)
   41034:	d8801f17 	ldw	r2,124(sp)
   41038:	4cc50d0e 	bge	r9,r19,42470 <___vfprintf_internal_r+0x1bc8>
   4103c:	01400174 	movhi	r5,5
   41040:	297e9784 	addi	r5,r5,-1442
   41044:	dc403b15 	stw	r17,236(sp)
   41048:	d9403515 	stw	r5,212(sp)
   4104c:	9823883a 	mov	r17,r19
   41050:	482d883a 	mov	r22,r9
   41054:	9027883a 	mov	r19,r18
   41058:	070001c4 	movi	fp,7
   4105c:	8025883a 	mov	r18,r16
   41060:	dc002c17 	ldw	r16,176(sp)
   41064:	00000306 	br	41074 <___vfprintf_internal_r+0x7cc>
   41068:	8c7ffc04 	addi	r17,r17,-16
   4106c:	42000204 	addi	r8,r8,8
   41070:	b440130e 	bge	r22,r17,410c0 <___vfprintf_internal_r+0x818>
   41074:	01000174 	movhi	r4,5
   41078:	18c00404 	addi	r3,r3,16
   4107c:	10800044 	addi	r2,r2,1
   41080:	213e9784 	addi	r4,r4,-1442
   41084:	41000015 	stw	r4,0(r8)
   41088:	45800115 	stw	r22,4(r8)
   4108c:	d8c02015 	stw	r3,128(sp)
   41090:	d8801f15 	stw	r2,124(sp)
   41094:	e0bff40e 	bge	fp,r2,41068 <__alt_mem_onchip_memory2_1+0xfffc0068>
   41098:	d9801e04 	addi	r6,sp,120
   4109c:	b80b883a 	mov	r5,r23
   410a0:	8009883a 	mov	r4,r16
   410a4:	0047ea40 	call	47ea4 <__sprint_r>
   410a8:	103f011e 	bne	r2,zero,40cb0 <__alt_mem_onchip_memory2_1+0xfffbfcb0>
   410ac:	8c7ffc04 	addi	r17,r17,-16
   410b0:	d8c02017 	ldw	r3,128(sp)
   410b4:	d8801f17 	ldw	r2,124(sp)
   410b8:	da000404 	addi	r8,sp,16
   410bc:	b47fed16 	blt	r22,r17,41074 <__alt_mem_onchip_memory2_1+0xfffc0074>
   410c0:	9021883a 	mov	r16,r18
   410c4:	9825883a 	mov	r18,r19
   410c8:	8827883a 	mov	r19,r17
   410cc:	dc403b17 	ldw	r17,236(sp)
   410d0:	d9403517 	ldw	r5,212(sp)
   410d4:	98c7883a 	add	r3,r19,r3
   410d8:	10800044 	addi	r2,r2,1
   410dc:	41400015 	stw	r5,0(r8)
   410e0:	44c00115 	stw	r19,4(r8)
   410e4:	d8c02015 	stw	r3,128(sp)
   410e8:	d8801f15 	stw	r2,124(sp)
   410ec:	010001c4 	movi	r4,7
   410f0:	2082a316 	blt	r4,r2,41b80 <___vfprintf_internal_r+0x12d8>
   410f4:	df002787 	ldb	fp,158(sp)
   410f8:	42000204 	addi	r8,r8,8
   410fc:	e0000c26 	beq	fp,zero,41130 <___vfprintf_internal_r+0x888>
   41100:	d8801f17 	ldw	r2,124(sp)
   41104:	d9002784 	addi	r4,sp,158
   41108:	18c00044 	addi	r3,r3,1
   4110c:	10800044 	addi	r2,r2,1
   41110:	41000015 	stw	r4,0(r8)
   41114:	01000044 	movi	r4,1
   41118:	41000115 	stw	r4,4(r8)
   4111c:	d8c02015 	stw	r3,128(sp)
   41120:	d8801f15 	stw	r2,124(sp)
   41124:	010001c4 	movi	r4,7
   41128:	20823c16 	blt	r4,r2,41a1c <___vfprintf_internal_r+0x1174>
   4112c:	42000204 	addi	r8,r8,8
   41130:	d8802b17 	ldw	r2,172(sp)
   41134:	10000c26 	beq	r2,zero,41168 <___vfprintf_internal_r+0x8c0>
   41138:	d8801f17 	ldw	r2,124(sp)
   4113c:	d9002704 	addi	r4,sp,156
   41140:	18c00084 	addi	r3,r3,2
   41144:	10800044 	addi	r2,r2,1
   41148:	41000015 	stw	r4,0(r8)
   4114c:	01000084 	movi	r4,2
   41150:	41000115 	stw	r4,4(r8)
   41154:	d8c02015 	stw	r3,128(sp)
   41158:	d8801f15 	stw	r2,124(sp)
   4115c:	010001c4 	movi	r4,7
   41160:	20823616 	blt	r4,r2,41a3c <___vfprintf_internal_r+0x1194>
   41164:	42000204 	addi	r8,r8,8
   41168:	d9003017 	ldw	r4,192(sp)
   4116c:	00802004 	movi	r2,128
   41170:	20819926 	beq	r4,r2,417d8 <___vfprintf_internal_r+0xf30>
   41174:	d9402917 	ldw	r5,164(sp)
   41178:	d8802e17 	ldw	r2,184(sp)
   4117c:	28adc83a 	sub	r22,r5,r2
   41180:	0580310e 	bge	zero,r22,41248 <___vfprintf_internal_r+0x9a0>
   41184:	07000404 	movi	fp,16
   41188:	d8801f17 	ldw	r2,124(sp)
   4118c:	e584140e 	bge	fp,r22,421e0 <___vfprintf_internal_r+0x1938>
   41190:	01400174 	movhi	r5,5
   41194:	297e9384 	addi	r5,r5,-1458
   41198:	dc402915 	stw	r17,164(sp)
   4119c:	d9402b15 	stw	r5,172(sp)
   411a0:	b023883a 	mov	r17,r22
   411a4:	04c001c4 	movi	r19,7
   411a8:	a82d883a 	mov	r22,r21
   411ac:	902b883a 	mov	r21,r18
   411b0:	8025883a 	mov	r18,r16
   411b4:	dc002c17 	ldw	r16,176(sp)
   411b8:	00000306 	br	411c8 <___vfprintf_internal_r+0x920>
   411bc:	8c7ffc04 	addi	r17,r17,-16
   411c0:	42000204 	addi	r8,r8,8
   411c4:	e440110e 	bge	fp,r17,4120c <___vfprintf_internal_r+0x964>
   411c8:	18c00404 	addi	r3,r3,16
   411cc:	10800044 	addi	r2,r2,1
   411d0:	45000015 	stw	r20,0(r8)
   411d4:	47000115 	stw	fp,4(r8)
   411d8:	d8c02015 	stw	r3,128(sp)
   411dc:	d8801f15 	stw	r2,124(sp)
   411e0:	98bff60e 	bge	r19,r2,411bc <__alt_mem_onchip_memory2_1+0xfffc01bc>
   411e4:	d9801e04 	addi	r6,sp,120
   411e8:	b80b883a 	mov	r5,r23
   411ec:	8009883a 	mov	r4,r16
   411f0:	0047ea40 	call	47ea4 <__sprint_r>
   411f4:	103eae1e 	bne	r2,zero,40cb0 <__alt_mem_onchip_memory2_1+0xfffbfcb0>
   411f8:	8c7ffc04 	addi	r17,r17,-16
   411fc:	d8c02017 	ldw	r3,128(sp)
   41200:	d8801f17 	ldw	r2,124(sp)
   41204:	da000404 	addi	r8,sp,16
   41208:	e47fef16 	blt	fp,r17,411c8 <__alt_mem_onchip_memory2_1+0xfffc01c8>
   4120c:	9021883a 	mov	r16,r18
   41210:	a825883a 	mov	r18,r21
   41214:	b02b883a 	mov	r21,r22
   41218:	882d883a 	mov	r22,r17
   4121c:	dc402917 	ldw	r17,164(sp)
   41220:	d9002b17 	ldw	r4,172(sp)
   41224:	1d87883a 	add	r3,r3,r22
   41228:	10800044 	addi	r2,r2,1
   4122c:	41000015 	stw	r4,0(r8)
   41230:	45800115 	stw	r22,4(r8)
   41234:	d8c02015 	stw	r3,128(sp)
   41238:	d8801f15 	stw	r2,124(sp)
   4123c:	010001c4 	movi	r4,7
   41240:	2081ee16 	blt	r4,r2,419fc <___vfprintf_internal_r+0x1154>
   41244:	42000204 	addi	r8,r8,8
   41248:	9080400c 	andi	r2,r18,256
   4124c:	1001181e 	bne	r2,zero,416b0 <___vfprintf_internal_r+0xe08>
   41250:	d9402e17 	ldw	r5,184(sp)
   41254:	d8801f17 	ldw	r2,124(sp)
   41258:	44000015 	stw	r16,0(r8)
   4125c:	1947883a 	add	r3,r3,r5
   41260:	10800044 	addi	r2,r2,1
   41264:	41400115 	stw	r5,4(r8)
   41268:	d8c02015 	stw	r3,128(sp)
   4126c:	d8801f15 	stw	r2,124(sp)
   41270:	010001c4 	movi	r4,7
   41274:	2081d316 	blt	r4,r2,419c4 <___vfprintf_internal_r+0x111c>
   41278:	42000204 	addi	r8,r8,8
   4127c:	9480010c 	andi	r18,r18,4
   41280:	90003226 	beq	r18,zero,4134c <___vfprintf_internal_r+0xaa4>
   41284:	d9403117 	ldw	r5,196(sp)
   41288:	d8802a17 	ldw	r2,168(sp)
   4128c:	28a1c83a 	sub	r16,r5,r2
   41290:	04002e0e 	bge	zero,r16,4134c <___vfprintf_internal_r+0xaa4>
   41294:	04400404 	movi	r17,16
   41298:	d8801f17 	ldw	r2,124(sp)
   4129c:	8c04a20e 	bge	r17,r16,42528 <___vfprintf_internal_r+0x1c80>
   412a0:	01400174 	movhi	r5,5
   412a4:	297e9784 	addi	r5,r5,-1442
   412a8:	d9403515 	stw	r5,212(sp)
   412ac:	048001c4 	movi	r18,7
   412b0:	dcc02c17 	ldw	r19,176(sp)
   412b4:	00000306 	br	412c4 <___vfprintf_internal_r+0xa1c>
   412b8:	843ffc04 	addi	r16,r16,-16
   412bc:	42000204 	addi	r8,r8,8
   412c0:	8c00130e 	bge	r17,r16,41310 <___vfprintf_internal_r+0xa68>
   412c4:	01000174 	movhi	r4,5
   412c8:	18c00404 	addi	r3,r3,16
   412cc:	10800044 	addi	r2,r2,1
   412d0:	213e9784 	addi	r4,r4,-1442
   412d4:	41000015 	stw	r4,0(r8)
   412d8:	44400115 	stw	r17,4(r8)
   412dc:	d8c02015 	stw	r3,128(sp)
   412e0:	d8801f15 	stw	r2,124(sp)
   412e4:	90bff40e 	bge	r18,r2,412b8 <__alt_mem_onchip_memory2_1+0xfffc02b8>
   412e8:	d9801e04 	addi	r6,sp,120
   412ec:	b80b883a 	mov	r5,r23
   412f0:	9809883a 	mov	r4,r19
   412f4:	0047ea40 	call	47ea4 <__sprint_r>
   412f8:	103e6d1e 	bne	r2,zero,40cb0 <__alt_mem_onchip_memory2_1+0xfffbfcb0>
   412fc:	843ffc04 	addi	r16,r16,-16
   41300:	d8c02017 	ldw	r3,128(sp)
   41304:	d8801f17 	ldw	r2,124(sp)
   41308:	da000404 	addi	r8,sp,16
   4130c:	8c3fed16 	blt	r17,r16,412c4 <__alt_mem_onchip_memory2_1+0xfffc02c4>
   41310:	d9403517 	ldw	r5,212(sp)
   41314:	1c07883a 	add	r3,r3,r16
   41318:	10800044 	addi	r2,r2,1
   4131c:	41400015 	stw	r5,0(r8)
   41320:	44000115 	stw	r16,4(r8)
   41324:	d8c02015 	stw	r3,128(sp)
   41328:	d8801f15 	stw	r2,124(sp)
   4132c:	010001c4 	movi	r4,7
   41330:	2080060e 	bge	r4,r2,4134c <___vfprintf_internal_r+0xaa4>
   41334:	d9002c17 	ldw	r4,176(sp)
   41338:	d9801e04 	addi	r6,sp,120
   4133c:	b80b883a 	mov	r5,r23
   41340:	0047ea40 	call	47ea4 <__sprint_r>
   41344:	103e5a1e 	bne	r2,zero,40cb0 <__alt_mem_onchip_memory2_1+0xfffbfcb0>
   41348:	d8c02017 	ldw	r3,128(sp)
   4134c:	d8803117 	ldw	r2,196(sp)
   41350:	d9002a17 	ldw	r4,168(sp)
   41354:	1100010e 	bge	r2,r4,4135c <___vfprintf_internal_r+0xab4>
   41358:	2005883a 	mov	r2,r4
   4135c:	d9402f17 	ldw	r5,188(sp)
   41360:	288b883a 	add	r5,r5,r2
   41364:	d9402f15 	stw	r5,188(sp)
   41368:	18019e1e 	bne	r3,zero,419e4 <___vfprintf_internal_r+0x113c>
   4136c:	a8800007 	ldb	r2,0(r21)
   41370:	d8001f15 	stw	zero,124(sp)
   41374:	da000404 	addi	r8,sp,16
   41378:	103d851e 	bne	r2,zero,40990 <__alt_mem_onchip_memory2_1+0xfffbf990>
   4137c:	a821883a 	mov	r16,r21
   41380:	003d9b06 	br	409f0 <__alt_mem_onchip_memory2_1+0xfffbf9f0>
   41384:	18c03fcc 	andi	r3,r3,255
   41388:	1805c11e 	bne	r3,zero,42a90 <___vfprintf_internal_r+0x21e8>
   4138c:	94800414 	ori	r18,r18,16
   41390:	9080080c 	andi	r2,r18,32
   41394:	10020c26 	beq	r2,zero,41bc8 <___vfprintf_internal_r+0x1320>
   41398:	d8802d17 	ldw	r2,180(sp)
   4139c:	d9002917 	ldw	r4,164(sp)
   413a0:	d8002785 	stb	zero,158(sp)
   413a4:	10c00204 	addi	r3,r2,8
   413a8:	14c00017 	ldw	r19,0(r2)
   413ac:	15800117 	ldw	r22,4(r2)
   413b0:	20040f16 	blt	r4,zero,423f0 <___vfprintf_internal_r+0x1b48>
   413b4:	013fdfc4 	movi	r4,-129
   413b8:	9d84b03a 	or	r2,r19,r22
   413bc:	d8c02d15 	stw	r3,180(sp)
   413c0:	9124703a 	and	r18,r18,r4
   413c4:	0039883a 	mov	fp,zero
   413c8:	103e891e 	bne	r2,zero,40df0 <__alt_mem_onchip_memory2_1+0xfffbfdf0>
   413cc:	d9002917 	ldw	r4,164(sp)
   413d0:	2002c11e 	bne	r4,zero,41ed8 <___vfprintf_internal_r+0x1630>
   413d4:	d8002915 	stw	zero,164(sp)
   413d8:	d8002e15 	stw	zero,184(sp)
   413dc:	dc001e04 	addi	r16,sp,120
   413e0:	003ef806 	br	40fc4 <__alt_mem_onchip_memory2_1+0xfffbffc4>
   413e4:	18c03fcc 	andi	r3,r3,255
   413e8:	18059d1e 	bne	r3,zero,42a60 <___vfprintf_internal_r+0x21b8>
   413ec:	01400174 	movhi	r5,5
   413f0:	297e8704 	addi	r5,r5,-1508
   413f4:	d9403915 	stw	r5,228(sp)
   413f8:	9080080c 	andi	r2,r18,32
   413fc:	10005226 	beq	r2,zero,41548 <___vfprintf_internal_r+0xca0>
   41400:	d8802d17 	ldw	r2,180(sp)
   41404:	14c00017 	ldw	r19,0(r2)
   41408:	15800117 	ldw	r22,4(r2)
   4140c:	10800204 	addi	r2,r2,8
   41410:	d8802d15 	stw	r2,180(sp)
   41414:	9080004c 	andi	r2,r18,1
   41418:	10019026 	beq	r2,zero,41a5c <___vfprintf_internal_r+0x11b4>
   4141c:	9d84b03a 	or	r2,r19,r22
   41420:	10036926 	beq	r2,zero,421c8 <___vfprintf_internal_r+0x1920>
   41424:	d8c02917 	ldw	r3,164(sp)
   41428:	00800c04 	movi	r2,48
   4142c:	d8802705 	stb	r2,156(sp)
   41430:	dc402745 	stb	r17,157(sp)
   41434:	d8002785 	stb	zero,158(sp)
   41438:	90800094 	ori	r2,r18,2
   4143c:	18045d16 	blt	r3,zero,425b4 <___vfprintf_internal_r+0x1d0c>
   41440:	00bfdfc4 	movi	r2,-129
   41444:	90a4703a 	and	r18,r18,r2
   41448:	94800094 	ori	r18,r18,2
   4144c:	0039883a 	mov	fp,zero
   41450:	d9003917 	ldw	r4,228(sp)
   41454:	dc001e04 	addi	r16,sp,120
   41458:	988003cc 	andi	r2,r19,15
   4145c:	b006973a 	slli	r3,r22,28
   41460:	2085883a 	add	r2,r4,r2
   41464:	9826d13a 	srli	r19,r19,4
   41468:	10800003 	ldbu	r2,0(r2)
   4146c:	b02cd13a 	srli	r22,r22,4
   41470:	843fffc4 	addi	r16,r16,-1
   41474:	1ce6b03a 	or	r19,r3,r19
   41478:	80800005 	stb	r2,0(r16)
   4147c:	9d84b03a 	or	r2,r19,r22
   41480:	103ff51e 	bne	r2,zero,41458 <__alt_mem_onchip_memory2_1+0xfffc0458>
   41484:	d8c02817 	ldw	r3,160(sp)
   41488:	1c07c83a 	sub	r3,r3,r16
   4148c:	d8c02e15 	stw	r3,184(sp)
   41490:	003ecc06 	br	40fc4 <__alt_mem_onchip_memory2_1+0xfffbffc4>
   41494:	18c03fcc 	andi	r3,r3,255
   41498:	183e9f26 	beq	r3,zero,40f18 <__alt_mem_onchip_memory2_1+0xfffbff18>
   4149c:	d9c02785 	stb	r7,158(sp)
   414a0:	003e9d06 	br	40f18 <__alt_mem_onchip_memory2_1+0xfffbff18>
   414a4:	00c00044 	movi	r3,1
   414a8:	01c00ac4 	movi	r7,43
   414ac:	ac400007 	ldb	r17,0(r21)
   414b0:	003d5e06 	br	40a2c <__alt_mem_onchip_memory2_1+0xfffbfa2c>
   414b4:	94800814 	ori	r18,r18,32
   414b8:	ac400007 	ldb	r17,0(r21)
   414bc:	003d5b06 	br	40a2c <__alt_mem_onchip_memory2_1+0xfffbfa2c>
   414c0:	d8c02d17 	ldw	r3,180(sp)
   414c4:	d8002785 	stb	zero,158(sp)
   414c8:	1c000017 	ldw	r16,0(r3)
   414cc:	1cc00104 	addi	r19,r3,4
   414d0:	80041926 	beq	r16,zero,42538 <___vfprintf_internal_r+0x1c90>
   414d4:	d9002917 	ldw	r4,164(sp)
   414d8:	2003d016 	blt	r4,zero,4241c <___vfprintf_internal_r+0x1b74>
   414dc:	200d883a 	mov	r6,r4
   414e0:	000b883a 	mov	r5,zero
   414e4:	8009883a 	mov	r4,r16
   414e8:	da003d15 	stw	r8,244(sp)
   414ec:	00460b80 	call	460b8 <memchr>
   414f0:	da003d17 	ldw	r8,244(sp)
   414f4:	10045426 	beq	r2,zero,42648 <___vfprintf_internal_r+0x1da0>
   414f8:	1405c83a 	sub	r2,r2,r16
   414fc:	d8802e15 	stw	r2,184(sp)
   41500:	1003cc16 	blt	r2,zero,42434 <___vfprintf_internal_r+0x1b8c>
   41504:	df002783 	ldbu	fp,158(sp)
   41508:	d8802a15 	stw	r2,168(sp)
   4150c:	dcc02d15 	stw	r19,180(sp)
   41510:	d8002915 	stw	zero,164(sp)
   41514:	d8003215 	stw	zero,200(sp)
   41518:	003eb006 	br	40fdc <__alt_mem_onchip_memory2_1+0xfffbffdc>
   4151c:	18c03fcc 	andi	r3,r3,255
   41520:	183f9b26 	beq	r3,zero,41390 <__alt_mem_onchip_memory2_1+0xfffc0390>
   41524:	d9c02785 	stb	r7,158(sp)
   41528:	003f9906 	br	41390 <__alt_mem_onchip_memory2_1+0xfffc0390>
   4152c:	18c03fcc 	andi	r3,r3,255
   41530:	1805551e 	bne	r3,zero,42a88 <___vfprintf_internal_r+0x21e0>
   41534:	01400174 	movhi	r5,5
   41538:	297e8c04 	addi	r5,r5,-1488
   4153c:	d9403915 	stw	r5,228(sp)
   41540:	9080080c 	andi	r2,r18,32
   41544:	103fae1e 	bne	r2,zero,41400 <__alt_mem_onchip_memory2_1+0xfffc0400>
   41548:	9080040c 	andi	r2,r18,16
   4154c:	1002de26 	beq	r2,zero,420c8 <___vfprintf_internal_r+0x1820>
   41550:	d8c02d17 	ldw	r3,180(sp)
   41554:	002d883a 	mov	r22,zero
   41558:	1cc00017 	ldw	r19,0(r3)
   4155c:	18c00104 	addi	r3,r3,4
   41560:	d8c02d15 	stw	r3,180(sp)
   41564:	003fab06 	br	41414 <__alt_mem_onchip_memory2_1+0xfffc0414>
   41568:	38803fcc 	andi	r2,r7,255
   4156c:	1080201c 	xori	r2,r2,128
   41570:	10bfe004 	addi	r2,r2,-128
   41574:	1002d21e 	bne	r2,zero,420c0 <___vfprintf_internal_r+0x1818>
   41578:	00c00044 	movi	r3,1
   4157c:	01c00804 	movi	r7,32
   41580:	ac400007 	ldb	r17,0(r21)
   41584:	003d2906 	br	40a2c <__alt_mem_onchip_memory2_1+0xfffbfa2c>
   41588:	94800054 	ori	r18,r18,1
   4158c:	ac400007 	ldb	r17,0(r21)
   41590:	003d2606 	br	40a2c <__alt_mem_onchip_memory2_1+0xfffbfa2c>
   41594:	18c03fcc 	andi	r3,r3,255
   41598:	183e0526 	beq	r3,zero,40db0 <__alt_mem_onchip_memory2_1+0xfffbfdb0>
   4159c:	d9c02785 	stb	r7,158(sp)
   415a0:	003e0306 	br	40db0 <__alt_mem_onchip_memory2_1+0xfffbfdb0>
   415a4:	94801014 	ori	r18,r18,64
   415a8:	ac400007 	ldb	r17,0(r21)
   415ac:	003d1f06 	br	40a2c <__alt_mem_onchip_memory2_1+0xfffbfa2c>
   415b0:	ac400007 	ldb	r17,0(r21)
   415b4:	8a438726 	beq	r17,r9,423d4 <___vfprintf_internal_r+0x1b2c>
   415b8:	94800414 	ori	r18,r18,16
   415bc:	003d1b06 	br	40a2c <__alt_mem_onchip_memory2_1+0xfffbfa2c>
   415c0:	18c03fcc 	andi	r3,r3,255
   415c4:	1805341e 	bne	r3,zero,42a98 <___vfprintf_internal_r+0x21f0>
   415c8:	9080080c 	andi	r2,r18,32
   415cc:	1002cd26 	beq	r2,zero,42104 <___vfprintf_internal_r+0x185c>
   415d0:	d9402d17 	ldw	r5,180(sp)
   415d4:	d9002f17 	ldw	r4,188(sp)
   415d8:	28800017 	ldw	r2,0(r5)
   415dc:	2007d7fa 	srai	r3,r4,31
   415e0:	29400104 	addi	r5,r5,4
   415e4:	d9402d15 	stw	r5,180(sp)
   415e8:	11000015 	stw	r4,0(r2)
   415ec:	10c00115 	stw	r3,4(r2)
   415f0:	003ce506 	br	40988 <__alt_mem_onchip_memory2_1+0xfffbf988>
   415f4:	d8c02d17 	ldw	r3,180(sp)
   415f8:	d9002d17 	ldw	r4,180(sp)
   415fc:	d8002785 	stb	zero,158(sp)
   41600:	18800017 	ldw	r2,0(r3)
   41604:	21000104 	addi	r4,r4,4
   41608:	00c00044 	movi	r3,1
   4160c:	d8c02a15 	stw	r3,168(sp)
   41610:	d8801405 	stb	r2,80(sp)
   41614:	d9002d15 	stw	r4,180(sp)
   41618:	d8c02e15 	stw	r3,184(sp)
   4161c:	d8002915 	stw	zero,164(sp)
   41620:	d8003215 	stw	zero,200(sp)
   41624:	dc001404 	addi	r16,sp,80
   41628:	0039883a 	mov	fp,zero
   4162c:	003e7206 	br	40ff8 <__alt_mem_onchip_memory2_1+0xfffbfff8>
   41630:	01000174 	movhi	r4,5
   41634:	213e8c04 	addi	r4,r4,-1488
   41638:	0039883a 	mov	fp,zero
   4163c:	d9003915 	stw	r4,228(sp)
   41640:	04401e04 	movi	r17,120
   41644:	003f8206 	br	41450 <__alt_mem_onchip_memory2_1+0xfffc0450>
   41648:	18c03fcc 	andi	r3,r3,255
   4164c:	1805061e 	bne	r3,zero,42a68 <___vfprintf_internal_r+0x21c0>
   41650:	883d9126 	beq	r17,zero,40c98 <__alt_mem_onchip_memory2_1+0xfffbfc98>
   41654:	00c00044 	movi	r3,1
   41658:	d8c02a15 	stw	r3,168(sp)
   4165c:	dc401405 	stb	r17,80(sp)
   41660:	d8002785 	stb	zero,158(sp)
   41664:	003fec06 	br	41618 <__alt_mem_onchip_memory2_1+0xfffc0618>
   41668:	01400174 	movhi	r5,5
   4166c:	297e8c04 	addi	r5,r5,-1488
   41670:	d9403915 	stw	r5,228(sp)
   41674:	d8c02d15 	stw	r3,180(sp)
   41678:	1025883a 	mov	r18,r2
   4167c:	04401e04 	movi	r17,120
   41680:	9d84b03a 	or	r2,r19,r22
   41684:	1000fc1e 	bne	r2,zero,41a78 <___vfprintf_internal_r+0x11d0>
   41688:	0039883a 	mov	fp,zero
   4168c:	00800084 	movi	r2,2
   41690:	10803fcc 	andi	r2,r2,255
   41694:	00c00044 	movi	r3,1
   41698:	10c20f26 	beq	r2,r3,41ed8 <___vfprintf_internal_r+0x1630>
   4169c:	00c00084 	movi	r3,2
   416a0:	10fd6326 	beq	r2,r3,40c30 <__alt_mem_onchip_memory2_1+0xfffbfc30>
   416a4:	003e2d06 	br	40f5c <__alt_mem_onchip_memory2_1+0xfffbff5c>
   416a8:	d8c02017 	ldw	r3,128(sp)
   416ac:	003e9306 	br	410fc <__alt_mem_onchip_memory2_1+0xfffc00fc>
   416b0:	00801944 	movi	r2,101
   416b4:	14407e0e 	bge	r2,r17,418b0 <___vfprintf_internal_r+0x1008>
   416b8:	d9003617 	ldw	r4,216(sp)
   416bc:	d9403817 	ldw	r5,224(sp)
   416c0:	000d883a 	mov	r6,zero
   416c4:	000f883a 	mov	r7,zero
   416c8:	d8c03c15 	stw	r3,240(sp)
   416cc:	da003d15 	stw	r8,244(sp)
   416d0:	004bb1c0 	call	4bb1c <__eqdf2>
   416d4:	d8c03c17 	ldw	r3,240(sp)
   416d8:	da003d17 	ldw	r8,244(sp)
   416dc:	1000f71e 	bne	r2,zero,41abc <___vfprintf_internal_r+0x1214>
   416e0:	d8801f17 	ldw	r2,124(sp)
   416e4:	01000174 	movhi	r4,5
   416e8:	213e9304 	addi	r4,r4,-1460
   416ec:	18c00044 	addi	r3,r3,1
   416f0:	10800044 	addi	r2,r2,1
   416f4:	41000015 	stw	r4,0(r8)
   416f8:	01000044 	movi	r4,1
   416fc:	41000115 	stw	r4,4(r8)
   41700:	d8c02015 	stw	r3,128(sp)
   41704:	d8801f15 	stw	r2,124(sp)
   41708:	010001c4 	movi	r4,7
   4170c:	2082b816 	blt	r4,r2,421f0 <___vfprintf_internal_r+0x1948>
   41710:	42000204 	addi	r8,r8,8
   41714:	d8802617 	ldw	r2,152(sp)
   41718:	d9403317 	ldw	r5,204(sp)
   4171c:	11400216 	blt	r2,r5,41728 <___vfprintf_internal_r+0xe80>
   41720:	9080004c 	andi	r2,r18,1
   41724:	103ed526 	beq	r2,zero,4127c <__alt_mem_onchip_memory2_1+0xfffc027c>
   41728:	d8803717 	ldw	r2,220(sp)
   4172c:	d9003417 	ldw	r4,208(sp)
   41730:	d9403717 	ldw	r5,220(sp)
   41734:	1887883a 	add	r3,r3,r2
   41738:	d8801f17 	ldw	r2,124(sp)
   4173c:	41000015 	stw	r4,0(r8)
   41740:	41400115 	stw	r5,4(r8)
   41744:	10800044 	addi	r2,r2,1
   41748:	d8c02015 	stw	r3,128(sp)
   4174c:	d8801f15 	stw	r2,124(sp)
   41750:	010001c4 	movi	r4,7
   41754:	20832916 	blt	r4,r2,423fc <___vfprintf_internal_r+0x1b54>
   41758:	42000204 	addi	r8,r8,8
   4175c:	d8803317 	ldw	r2,204(sp)
   41760:	143fffc4 	addi	r16,r2,-1
   41764:	043ec50e 	bge	zero,r16,4127c <__alt_mem_onchip_memory2_1+0xfffc027c>
   41768:	04400404 	movi	r17,16
   4176c:	d8801f17 	ldw	r2,124(sp)
   41770:	8c00880e 	bge	r17,r16,41994 <___vfprintf_internal_r+0x10ec>
   41774:	01400174 	movhi	r5,5
   41778:	297e9384 	addi	r5,r5,-1458
   4177c:	d9402b15 	stw	r5,172(sp)
   41780:	058001c4 	movi	r22,7
   41784:	dcc02c17 	ldw	r19,176(sp)
   41788:	00000306 	br	41798 <___vfprintf_internal_r+0xef0>
   4178c:	42000204 	addi	r8,r8,8
   41790:	843ffc04 	addi	r16,r16,-16
   41794:	8c00820e 	bge	r17,r16,419a0 <___vfprintf_internal_r+0x10f8>
   41798:	18c00404 	addi	r3,r3,16
   4179c:	10800044 	addi	r2,r2,1
   417a0:	45000015 	stw	r20,0(r8)
   417a4:	44400115 	stw	r17,4(r8)
   417a8:	d8c02015 	stw	r3,128(sp)
   417ac:	d8801f15 	stw	r2,124(sp)
   417b0:	b0bff60e 	bge	r22,r2,4178c <__alt_mem_onchip_memory2_1+0xfffc078c>
   417b4:	d9801e04 	addi	r6,sp,120
   417b8:	b80b883a 	mov	r5,r23
   417bc:	9809883a 	mov	r4,r19
   417c0:	0047ea40 	call	47ea4 <__sprint_r>
   417c4:	103d3a1e 	bne	r2,zero,40cb0 <__alt_mem_onchip_memory2_1+0xfffbfcb0>
   417c8:	d8c02017 	ldw	r3,128(sp)
   417cc:	d8801f17 	ldw	r2,124(sp)
   417d0:	da000404 	addi	r8,sp,16
   417d4:	003fee06 	br	41790 <__alt_mem_onchip_memory2_1+0xfffc0790>
   417d8:	d9403117 	ldw	r5,196(sp)
   417dc:	d8802a17 	ldw	r2,168(sp)
   417e0:	28adc83a 	sub	r22,r5,r2
   417e4:	05be630e 	bge	zero,r22,41174 <__alt_mem_onchip_memory2_1+0xfffc0174>
   417e8:	07000404 	movi	fp,16
   417ec:	d8801f17 	ldw	r2,124(sp)
   417f0:	e5838f0e 	bge	fp,r22,42630 <___vfprintf_internal_r+0x1d88>
   417f4:	01400174 	movhi	r5,5
   417f8:	297e9384 	addi	r5,r5,-1458
   417fc:	dc403015 	stw	r17,192(sp)
   41800:	d9402b15 	stw	r5,172(sp)
   41804:	b023883a 	mov	r17,r22
   41808:	04c001c4 	movi	r19,7
   4180c:	a82d883a 	mov	r22,r21
   41810:	902b883a 	mov	r21,r18
   41814:	8025883a 	mov	r18,r16
   41818:	dc002c17 	ldw	r16,176(sp)
   4181c:	00000306 	br	4182c <___vfprintf_internal_r+0xf84>
   41820:	8c7ffc04 	addi	r17,r17,-16
   41824:	42000204 	addi	r8,r8,8
   41828:	e440110e 	bge	fp,r17,41870 <___vfprintf_internal_r+0xfc8>
   4182c:	18c00404 	addi	r3,r3,16
   41830:	10800044 	addi	r2,r2,1
   41834:	45000015 	stw	r20,0(r8)
   41838:	47000115 	stw	fp,4(r8)
   4183c:	d8c02015 	stw	r3,128(sp)
   41840:	d8801f15 	stw	r2,124(sp)
   41844:	98bff60e 	bge	r19,r2,41820 <__alt_mem_onchip_memory2_1+0xfffc0820>
   41848:	d9801e04 	addi	r6,sp,120
   4184c:	b80b883a 	mov	r5,r23
   41850:	8009883a 	mov	r4,r16
   41854:	0047ea40 	call	47ea4 <__sprint_r>
   41858:	103d151e 	bne	r2,zero,40cb0 <__alt_mem_onchip_memory2_1+0xfffbfcb0>
   4185c:	8c7ffc04 	addi	r17,r17,-16
   41860:	d8c02017 	ldw	r3,128(sp)
   41864:	d8801f17 	ldw	r2,124(sp)
   41868:	da000404 	addi	r8,sp,16
   4186c:	e47fef16 	blt	fp,r17,4182c <__alt_mem_onchip_memory2_1+0xfffc082c>
   41870:	9021883a 	mov	r16,r18
   41874:	a825883a 	mov	r18,r21
   41878:	b02b883a 	mov	r21,r22
   4187c:	882d883a 	mov	r22,r17
   41880:	dc403017 	ldw	r17,192(sp)
   41884:	d9002b17 	ldw	r4,172(sp)
   41888:	1d87883a 	add	r3,r3,r22
   4188c:	10800044 	addi	r2,r2,1
   41890:	41000015 	stw	r4,0(r8)
   41894:	45800115 	stw	r22,4(r8)
   41898:	d8c02015 	stw	r3,128(sp)
   4189c:	d8801f15 	stw	r2,124(sp)
   418a0:	010001c4 	movi	r4,7
   418a4:	20818e16 	blt	r4,r2,41ee0 <___vfprintf_internal_r+0x1638>
   418a8:	42000204 	addi	r8,r8,8
   418ac:	003e3106 	br	41174 <__alt_mem_onchip_memory2_1+0xfffc0174>
   418b0:	d9403317 	ldw	r5,204(sp)
   418b4:	00800044 	movi	r2,1
   418b8:	18c00044 	addi	r3,r3,1
   418bc:	1141530e 	bge	r2,r5,41e0c <___vfprintf_internal_r+0x1564>
   418c0:	dc401f17 	ldw	r17,124(sp)
   418c4:	00800044 	movi	r2,1
   418c8:	40800115 	stw	r2,4(r8)
   418cc:	8c400044 	addi	r17,r17,1
   418d0:	44000015 	stw	r16,0(r8)
   418d4:	d8c02015 	stw	r3,128(sp)
   418d8:	dc401f15 	stw	r17,124(sp)
   418dc:	008001c4 	movi	r2,7
   418e0:	14416b16 	blt	r2,r17,41e90 <___vfprintf_internal_r+0x15e8>
   418e4:	42000204 	addi	r8,r8,8
   418e8:	d8803717 	ldw	r2,220(sp)
   418ec:	d9003417 	ldw	r4,208(sp)
   418f0:	8c400044 	addi	r17,r17,1
   418f4:	10c7883a 	add	r3,r2,r3
   418f8:	40800115 	stw	r2,4(r8)
   418fc:	41000015 	stw	r4,0(r8)
   41900:	d8c02015 	stw	r3,128(sp)
   41904:	dc401f15 	stw	r17,124(sp)
   41908:	008001c4 	movi	r2,7
   4190c:	14416916 	blt	r2,r17,41eb4 <___vfprintf_internal_r+0x160c>
   41910:	45800204 	addi	r22,r8,8
   41914:	d9003617 	ldw	r4,216(sp)
   41918:	d9403817 	ldw	r5,224(sp)
   4191c:	000d883a 	mov	r6,zero
   41920:	000f883a 	mov	r7,zero
   41924:	d8c03c15 	stw	r3,240(sp)
   41928:	004bb1c0 	call	4bb1c <__eqdf2>
   4192c:	d8c03c17 	ldw	r3,240(sp)
   41930:	1000bc26 	beq	r2,zero,41c24 <___vfprintf_internal_r+0x137c>
   41934:	d9403317 	ldw	r5,204(sp)
   41938:	84000044 	addi	r16,r16,1
   4193c:	8c400044 	addi	r17,r17,1
   41940:	28bfffc4 	addi	r2,r5,-1
   41944:	1887883a 	add	r3,r3,r2
   41948:	b0800115 	stw	r2,4(r22)
   4194c:	b4000015 	stw	r16,0(r22)
   41950:	d8c02015 	stw	r3,128(sp)
   41954:	dc401f15 	stw	r17,124(sp)
   41958:	008001c4 	movi	r2,7
   4195c:	14414316 	blt	r2,r17,41e6c <___vfprintf_internal_r+0x15c4>
   41960:	b5800204 	addi	r22,r22,8
   41964:	d9003a17 	ldw	r4,232(sp)
   41968:	df0022c4 	addi	fp,sp,139
   4196c:	8c400044 	addi	r17,r17,1
   41970:	20c7883a 	add	r3,r4,r3
   41974:	b7000015 	stw	fp,0(r22)
   41978:	b1000115 	stw	r4,4(r22)
   4197c:	d8c02015 	stw	r3,128(sp)
   41980:	dc401f15 	stw	r17,124(sp)
   41984:	008001c4 	movi	r2,7
   41988:	14400e16 	blt	r2,r17,419c4 <___vfprintf_internal_r+0x111c>
   4198c:	b2000204 	addi	r8,r22,8
   41990:	003e3a06 	br	4127c <__alt_mem_onchip_memory2_1+0xfffc027c>
   41994:	01000174 	movhi	r4,5
   41998:	213e9384 	addi	r4,r4,-1458
   4199c:	d9002b15 	stw	r4,172(sp)
   419a0:	d9002b17 	ldw	r4,172(sp)
   419a4:	1c07883a 	add	r3,r3,r16
   419a8:	44000115 	stw	r16,4(r8)
   419ac:	41000015 	stw	r4,0(r8)
   419b0:	10800044 	addi	r2,r2,1
   419b4:	d8c02015 	stw	r3,128(sp)
   419b8:	d8801f15 	stw	r2,124(sp)
   419bc:	010001c4 	movi	r4,7
   419c0:	20be2d0e 	bge	r4,r2,41278 <__alt_mem_onchip_memory2_1+0xfffc0278>
   419c4:	d9002c17 	ldw	r4,176(sp)
   419c8:	d9801e04 	addi	r6,sp,120
   419cc:	b80b883a 	mov	r5,r23
   419d0:	0047ea40 	call	47ea4 <__sprint_r>
   419d4:	103cb61e 	bne	r2,zero,40cb0 <__alt_mem_onchip_memory2_1+0xfffbfcb0>
   419d8:	d8c02017 	ldw	r3,128(sp)
   419dc:	da000404 	addi	r8,sp,16
   419e0:	003e2606 	br	4127c <__alt_mem_onchip_memory2_1+0xfffc027c>
   419e4:	d9002c17 	ldw	r4,176(sp)
   419e8:	d9801e04 	addi	r6,sp,120
   419ec:	b80b883a 	mov	r5,r23
   419f0:	0047ea40 	call	47ea4 <__sprint_r>
   419f4:	103e5d26 	beq	r2,zero,4136c <__alt_mem_onchip_memory2_1+0xfffc036c>
   419f8:	003cad06 	br	40cb0 <__alt_mem_onchip_memory2_1+0xfffbfcb0>
   419fc:	d9002c17 	ldw	r4,176(sp)
   41a00:	d9801e04 	addi	r6,sp,120
   41a04:	b80b883a 	mov	r5,r23
   41a08:	0047ea40 	call	47ea4 <__sprint_r>
   41a0c:	103ca81e 	bne	r2,zero,40cb0 <__alt_mem_onchip_memory2_1+0xfffbfcb0>
   41a10:	d8c02017 	ldw	r3,128(sp)
   41a14:	da000404 	addi	r8,sp,16
   41a18:	003e0b06 	br	41248 <__alt_mem_onchip_memory2_1+0xfffc0248>
   41a1c:	d9002c17 	ldw	r4,176(sp)
   41a20:	d9801e04 	addi	r6,sp,120
   41a24:	b80b883a 	mov	r5,r23
   41a28:	0047ea40 	call	47ea4 <__sprint_r>
   41a2c:	103ca01e 	bne	r2,zero,40cb0 <__alt_mem_onchip_memory2_1+0xfffbfcb0>
   41a30:	d8c02017 	ldw	r3,128(sp)
   41a34:	da000404 	addi	r8,sp,16
   41a38:	003dbd06 	br	41130 <__alt_mem_onchip_memory2_1+0xfffc0130>
   41a3c:	d9002c17 	ldw	r4,176(sp)
   41a40:	d9801e04 	addi	r6,sp,120
   41a44:	b80b883a 	mov	r5,r23
   41a48:	0047ea40 	call	47ea4 <__sprint_r>
   41a4c:	103c981e 	bne	r2,zero,40cb0 <__alt_mem_onchip_memory2_1+0xfffbfcb0>
   41a50:	d8c02017 	ldw	r3,128(sp)
   41a54:	da000404 	addi	r8,sp,16
   41a58:	003dc306 	br	41168 <__alt_mem_onchip_memory2_1+0xfffc0168>
   41a5c:	d8802917 	ldw	r2,164(sp)
   41a60:	d8002785 	stb	zero,158(sp)
   41a64:	103f0616 	blt	r2,zero,41680 <__alt_mem_onchip_memory2_1+0xfffc0680>
   41a68:	00ffdfc4 	movi	r3,-129
   41a6c:	9d84b03a 	or	r2,r19,r22
   41a70:	90e4703a 	and	r18,r18,r3
   41a74:	103c6b26 	beq	r2,zero,40c24 <__alt_mem_onchip_memory2_1+0xfffbfc24>
   41a78:	0039883a 	mov	fp,zero
   41a7c:	003e7406 	br	41450 <__alt_mem_onchip_memory2_1+0xfffc0450>
   41a80:	9080040c 	andi	r2,r18,16
   41a84:	1001b326 	beq	r2,zero,42154 <___vfprintf_internal_r+0x18ac>
   41a88:	d9002d17 	ldw	r4,180(sp)
   41a8c:	d9402917 	ldw	r5,164(sp)
   41a90:	d8002785 	stb	zero,158(sp)
   41a94:	20800104 	addi	r2,r4,4
   41a98:	24c00017 	ldw	r19,0(r4)
   41a9c:	002d883a 	mov	r22,zero
   41aa0:	2801b516 	blt	r5,zero,42178 <___vfprintf_internal_r+0x18d0>
   41aa4:	00ffdfc4 	movi	r3,-129
   41aa8:	d8802d15 	stw	r2,180(sp)
   41aac:	90e4703a 	and	r18,r18,r3
   41ab0:	983d2726 	beq	r19,zero,40f50 <__alt_mem_onchip_memory2_1+0xfffbff50>
   41ab4:	0039883a 	mov	fp,zero
   41ab8:	003d2a06 	br	40f64 <__alt_mem_onchip_memory2_1+0xfffbff64>
   41abc:	dc402617 	ldw	r17,152(sp)
   41ac0:	0441d30e 	bge	zero,r17,42210 <___vfprintf_internal_r+0x1968>
   41ac4:	dc403217 	ldw	r17,200(sp)
   41ac8:	d8803317 	ldw	r2,204(sp)
   41acc:	1440010e 	bge	r2,r17,41ad4 <___vfprintf_internal_r+0x122c>
   41ad0:	1023883a 	mov	r17,r2
   41ad4:	04400a0e 	bge	zero,r17,41b00 <___vfprintf_internal_r+0x1258>
   41ad8:	d8801f17 	ldw	r2,124(sp)
   41adc:	1c47883a 	add	r3,r3,r17
   41ae0:	44000015 	stw	r16,0(r8)
   41ae4:	10800044 	addi	r2,r2,1
   41ae8:	44400115 	stw	r17,4(r8)
   41aec:	d8c02015 	stw	r3,128(sp)
   41af0:	d8801f15 	stw	r2,124(sp)
   41af4:	010001c4 	movi	r4,7
   41af8:	20826516 	blt	r4,r2,42490 <___vfprintf_internal_r+0x1be8>
   41afc:	42000204 	addi	r8,r8,8
   41b00:	88026116 	blt	r17,zero,42488 <___vfprintf_internal_r+0x1be0>
   41b04:	d9003217 	ldw	r4,200(sp)
   41b08:	2463c83a 	sub	r17,r4,r17
   41b0c:	04407b0e 	bge	zero,r17,41cfc <___vfprintf_internal_r+0x1454>
   41b10:	05800404 	movi	r22,16
   41b14:	d8801f17 	ldw	r2,124(sp)
   41b18:	b4419d0e 	bge	r22,r17,42190 <___vfprintf_internal_r+0x18e8>
   41b1c:	01000174 	movhi	r4,5
   41b20:	213e9384 	addi	r4,r4,-1458
   41b24:	d9002b15 	stw	r4,172(sp)
   41b28:	070001c4 	movi	fp,7
   41b2c:	dcc02c17 	ldw	r19,176(sp)
   41b30:	00000306 	br	41b40 <___vfprintf_internal_r+0x1298>
   41b34:	42000204 	addi	r8,r8,8
   41b38:	8c7ffc04 	addi	r17,r17,-16
   41b3c:	b441970e 	bge	r22,r17,4219c <___vfprintf_internal_r+0x18f4>
   41b40:	18c00404 	addi	r3,r3,16
   41b44:	10800044 	addi	r2,r2,1
   41b48:	45000015 	stw	r20,0(r8)
   41b4c:	45800115 	stw	r22,4(r8)
   41b50:	d8c02015 	stw	r3,128(sp)
   41b54:	d8801f15 	stw	r2,124(sp)
   41b58:	e0bff60e 	bge	fp,r2,41b34 <__alt_mem_onchip_memory2_1+0xfffc0b34>
   41b5c:	d9801e04 	addi	r6,sp,120
   41b60:	b80b883a 	mov	r5,r23
   41b64:	9809883a 	mov	r4,r19
   41b68:	0047ea40 	call	47ea4 <__sprint_r>
   41b6c:	103c501e 	bne	r2,zero,40cb0 <__alt_mem_onchip_memory2_1+0xfffbfcb0>
   41b70:	d8c02017 	ldw	r3,128(sp)
   41b74:	d8801f17 	ldw	r2,124(sp)
   41b78:	da000404 	addi	r8,sp,16
   41b7c:	003fee06 	br	41b38 <__alt_mem_onchip_memory2_1+0xfffc0b38>
   41b80:	d9002c17 	ldw	r4,176(sp)
   41b84:	d9801e04 	addi	r6,sp,120
   41b88:	b80b883a 	mov	r5,r23
   41b8c:	0047ea40 	call	47ea4 <__sprint_r>
   41b90:	103c471e 	bne	r2,zero,40cb0 <__alt_mem_onchip_memory2_1+0xfffbfcb0>
   41b94:	d8c02017 	ldw	r3,128(sp)
   41b98:	df002787 	ldb	fp,158(sp)
   41b9c:	da000404 	addi	r8,sp,16
   41ba0:	003d5606 	br	410fc <__alt_mem_onchip_memory2_1+0xfffc00fc>
   41ba4:	9080040c 	andi	r2,r18,16
   41ba8:	10016126 	beq	r2,zero,42130 <___vfprintf_internal_r+0x1888>
   41bac:	d8802d17 	ldw	r2,180(sp)
   41bb0:	14c00017 	ldw	r19,0(r2)
   41bb4:	10800104 	addi	r2,r2,4
   41bb8:	d8802d15 	stw	r2,180(sp)
   41bbc:	982dd7fa 	srai	r22,r19,31
   41bc0:	b005883a 	mov	r2,r22
   41bc4:	003c8206 	br	40dd0 <__alt_mem_onchip_memory2_1+0xfffbfdd0>
   41bc8:	9080040c 	andi	r2,r18,16
   41bcc:	10003526 	beq	r2,zero,41ca4 <___vfprintf_internal_r+0x13fc>
   41bd0:	d9402d17 	ldw	r5,180(sp)
   41bd4:	d8c02917 	ldw	r3,164(sp)
   41bd8:	d8002785 	stb	zero,158(sp)
   41bdc:	28800104 	addi	r2,r5,4
   41be0:	2cc00017 	ldw	r19,0(r5)
   41be4:	002d883a 	mov	r22,zero
   41be8:	18003716 	blt	r3,zero,41cc8 <___vfprintf_internal_r+0x1420>
   41bec:	00ffdfc4 	movi	r3,-129
   41bf0:	d8802d15 	stw	r2,180(sp)
   41bf4:	90e4703a 	and	r18,r18,r3
   41bf8:	0039883a 	mov	fp,zero
   41bfc:	983df326 	beq	r19,zero,413cc <__alt_mem_onchip_memory2_1+0xfffc03cc>
   41c00:	00800244 	movi	r2,9
   41c04:	14fc7b36 	bltu	r2,r19,40df4 <__alt_mem_onchip_memory2_1+0xfffbfdf4>
   41c08:	d8c02817 	ldw	r3,160(sp)
   41c0c:	dc001dc4 	addi	r16,sp,119
   41c10:	9cc00c04 	addi	r19,r19,48
   41c14:	1c07c83a 	sub	r3,r3,r16
   41c18:	dcc01dc5 	stb	r19,119(sp)
   41c1c:	d8c02e15 	stw	r3,184(sp)
   41c20:	003ce806 	br	40fc4 <__alt_mem_onchip_memory2_1+0xfffbffc4>
   41c24:	d8803317 	ldw	r2,204(sp)
   41c28:	143fffc4 	addi	r16,r2,-1
   41c2c:	043f4d0e 	bge	zero,r16,41964 <__alt_mem_onchip_memory2_1+0xfffc0964>
   41c30:	07000404 	movi	fp,16
   41c34:	e400810e 	bge	fp,r16,41e3c <___vfprintf_internal_r+0x1594>
   41c38:	01400174 	movhi	r5,5
   41c3c:	297e9384 	addi	r5,r5,-1458
   41c40:	d9402b15 	stw	r5,172(sp)
   41c44:	01c001c4 	movi	r7,7
   41c48:	dcc02c17 	ldw	r19,176(sp)
   41c4c:	00000306 	br	41c5c <___vfprintf_internal_r+0x13b4>
   41c50:	b5800204 	addi	r22,r22,8
   41c54:	843ffc04 	addi	r16,r16,-16
   41c58:	e4007b0e 	bge	fp,r16,41e48 <___vfprintf_internal_r+0x15a0>
   41c5c:	18c00404 	addi	r3,r3,16
   41c60:	8c400044 	addi	r17,r17,1
   41c64:	b5000015 	stw	r20,0(r22)
   41c68:	b7000115 	stw	fp,4(r22)
   41c6c:	d8c02015 	stw	r3,128(sp)
   41c70:	dc401f15 	stw	r17,124(sp)
   41c74:	3c7ff60e 	bge	r7,r17,41c50 <__alt_mem_onchip_memory2_1+0xfffc0c50>
   41c78:	d9801e04 	addi	r6,sp,120
   41c7c:	b80b883a 	mov	r5,r23
   41c80:	9809883a 	mov	r4,r19
   41c84:	d9c03c15 	stw	r7,240(sp)
   41c88:	0047ea40 	call	47ea4 <__sprint_r>
   41c8c:	d9c03c17 	ldw	r7,240(sp)
   41c90:	103c071e 	bne	r2,zero,40cb0 <__alt_mem_onchip_memory2_1+0xfffbfcb0>
   41c94:	d8c02017 	ldw	r3,128(sp)
   41c98:	dc401f17 	ldw	r17,124(sp)
   41c9c:	dd800404 	addi	r22,sp,16
   41ca0:	003fec06 	br	41c54 <__alt_mem_onchip_memory2_1+0xfffc0c54>
   41ca4:	9080100c 	andi	r2,r18,64
   41ca8:	d8002785 	stb	zero,158(sp)
   41cac:	10010e26 	beq	r2,zero,420e8 <___vfprintf_internal_r+0x1840>
   41cb0:	d9002d17 	ldw	r4,180(sp)
   41cb4:	d9402917 	ldw	r5,164(sp)
   41cb8:	002d883a 	mov	r22,zero
   41cbc:	20800104 	addi	r2,r4,4
   41cc0:	24c0000b 	ldhu	r19,0(r4)
   41cc4:	283fc90e 	bge	r5,zero,41bec <__alt_mem_onchip_memory2_1+0xfffc0bec>
   41cc8:	d8802d15 	stw	r2,180(sp)
   41ccc:	0039883a 	mov	fp,zero
   41cd0:	9d84b03a 	or	r2,r19,r22
   41cd4:	103c461e 	bne	r2,zero,40df0 <__alt_mem_onchip_memory2_1+0xfffbfdf0>
   41cd8:	00800044 	movi	r2,1
   41cdc:	003e6c06 	br	41690 <__alt_mem_onchip_memory2_1+0xfffc0690>
   41ce0:	d9002c17 	ldw	r4,176(sp)
   41ce4:	d9801e04 	addi	r6,sp,120
   41ce8:	b80b883a 	mov	r5,r23
   41cec:	0047ea40 	call	47ea4 <__sprint_r>
   41cf0:	103bef1e 	bne	r2,zero,40cb0 <__alt_mem_onchip_memory2_1+0xfffbfcb0>
   41cf4:	d8c02017 	ldw	r3,128(sp)
   41cf8:	da000404 	addi	r8,sp,16
   41cfc:	d9003217 	ldw	r4,200(sp)
   41d00:	d8802617 	ldw	r2,152(sp)
   41d04:	d9403317 	ldw	r5,204(sp)
   41d08:	8123883a 	add	r17,r16,r4
   41d0c:	11400216 	blt	r2,r5,41d18 <___vfprintf_internal_r+0x1470>
   41d10:	9100004c 	andi	r4,r18,1
   41d14:	20000d26 	beq	r4,zero,41d4c <___vfprintf_internal_r+0x14a4>
   41d18:	d9003717 	ldw	r4,220(sp)
   41d1c:	d9403417 	ldw	r5,208(sp)
   41d20:	1907883a 	add	r3,r3,r4
   41d24:	d9001f17 	ldw	r4,124(sp)
   41d28:	41400015 	stw	r5,0(r8)
   41d2c:	d9403717 	ldw	r5,220(sp)
   41d30:	21000044 	addi	r4,r4,1
   41d34:	d8c02015 	stw	r3,128(sp)
   41d38:	41400115 	stw	r5,4(r8)
   41d3c:	d9001f15 	stw	r4,124(sp)
   41d40:	014001c4 	movi	r5,7
   41d44:	2901e816 	blt	r5,r4,424e8 <___vfprintf_internal_r+0x1c40>
   41d48:	42000204 	addi	r8,r8,8
   41d4c:	d9003317 	ldw	r4,204(sp)
   41d50:	8121883a 	add	r16,r16,r4
   41d54:	2085c83a 	sub	r2,r4,r2
   41d58:	8461c83a 	sub	r16,r16,r17
   41d5c:	1400010e 	bge	r2,r16,41d64 <___vfprintf_internal_r+0x14bc>
   41d60:	1021883a 	mov	r16,r2
   41d64:	04000a0e 	bge	zero,r16,41d90 <___vfprintf_internal_r+0x14e8>
   41d68:	d9001f17 	ldw	r4,124(sp)
   41d6c:	1c07883a 	add	r3,r3,r16
   41d70:	44400015 	stw	r17,0(r8)
   41d74:	21000044 	addi	r4,r4,1
   41d78:	44000115 	stw	r16,4(r8)
   41d7c:	d8c02015 	stw	r3,128(sp)
   41d80:	d9001f15 	stw	r4,124(sp)
   41d84:	014001c4 	movi	r5,7
   41d88:	2901fb16 	blt	r5,r4,42578 <___vfprintf_internal_r+0x1cd0>
   41d8c:	42000204 	addi	r8,r8,8
   41d90:	8001f716 	blt	r16,zero,42570 <___vfprintf_internal_r+0x1cc8>
   41d94:	1421c83a 	sub	r16,r2,r16
   41d98:	043d380e 	bge	zero,r16,4127c <__alt_mem_onchip_memory2_1+0xfffc027c>
   41d9c:	04400404 	movi	r17,16
   41da0:	d8801f17 	ldw	r2,124(sp)
   41da4:	8c3efb0e 	bge	r17,r16,41994 <__alt_mem_onchip_memory2_1+0xfffc0994>
   41da8:	01400174 	movhi	r5,5
   41dac:	297e9384 	addi	r5,r5,-1458
   41db0:	d9402b15 	stw	r5,172(sp)
   41db4:	058001c4 	movi	r22,7
   41db8:	dcc02c17 	ldw	r19,176(sp)
   41dbc:	00000306 	br	41dcc <___vfprintf_internal_r+0x1524>
   41dc0:	42000204 	addi	r8,r8,8
   41dc4:	843ffc04 	addi	r16,r16,-16
   41dc8:	8c3ef50e 	bge	r17,r16,419a0 <__alt_mem_onchip_memory2_1+0xfffc09a0>
   41dcc:	18c00404 	addi	r3,r3,16
   41dd0:	10800044 	addi	r2,r2,1
   41dd4:	45000015 	stw	r20,0(r8)
   41dd8:	44400115 	stw	r17,4(r8)
   41ddc:	d8c02015 	stw	r3,128(sp)
   41de0:	d8801f15 	stw	r2,124(sp)
   41de4:	b0bff60e 	bge	r22,r2,41dc0 <__alt_mem_onchip_memory2_1+0xfffc0dc0>
   41de8:	d9801e04 	addi	r6,sp,120
   41dec:	b80b883a 	mov	r5,r23
   41df0:	9809883a 	mov	r4,r19
   41df4:	0047ea40 	call	47ea4 <__sprint_r>
   41df8:	103bad1e 	bne	r2,zero,40cb0 <__alt_mem_onchip_memory2_1+0xfffbfcb0>
   41dfc:	d8c02017 	ldw	r3,128(sp)
   41e00:	d8801f17 	ldw	r2,124(sp)
   41e04:	da000404 	addi	r8,sp,16
   41e08:	003fee06 	br	41dc4 <__alt_mem_onchip_memory2_1+0xfffc0dc4>
   41e0c:	9088703a 	and	r4,r18,r2
   41e10:	203eab1e 	bne	r4,zero,418c0 <__alt_mem_onchip_memory2_1+0xfffc08c0>
   41e14:	dc401f17 	ldw	r17,124(sp)
   41e18:	40800115 	stw	r2,4(r8)
   41e1c:	44000015 	stw	r16,0(r8)
   41e20:	8c400044 	addi	r17,r17,1
   41e24:	d8c02015 	stw	r3,128(sp)
   41e28:	dc401f15 	stw	r17,124(sp)
   41e2c:	008001c4 	movi	r2,7
   41e30:	14400e16 	blt	r2,r17,41e6c <___vfprintf_internal_r+0x15c4>
   41e34:	45800204 	addi	r22,r8,8
   41e38:	003eca06 	br	41964 <__alt_mem_onchip_memory2_1+0xfffc0964>
   41e3c:	01000174 	movhi	r4,5
   41e40:	213e9384 	addi	r4,r4,-1458
   41e44:	d9002b15 	stw	r4,172(sp)
   41e48:	d8802b17 	ldw	r2,172(sp)
   41e4c:	1c07883a 	add	r3,r3,r16
   41e50:	8c400044 	addi	r17,r17,1
   41e54:	b0800015 	stw	r2,0(r22)
   41e58:	b4000115 	stw	r16,4(r22)
   41e5c:	d8c02015 	stw	r3,128(sp)
   41e60:	dc401f15 	stw	r17,124(sp)
   41e64:	008001c4 	movi	r2,7
   41e68:	147ebd0e 	bge	r2,r17,41960 <__alt_mem_onchip_memory2_1+0xfffc0960>
   41e6c:	d9002c17 	ldw	r4,176(sp)
   41e70:	d9801e04 	addi	r6,sp,120
   41e74:	b80b883a 	mov	r5,r23
   41e78:	0047ea40 	call	47ea4 <__sprint_r>
   41e7c:	103b8c1e 	bne	r2,zero,40cb0 <__alt_mem_onchip_memory2_1+0xfffbfcb0>
   41e80:	d8c02017 	ldw	r3,128(sp)
   41e84:	dc401f17 	ldw	r17,124(sp)
   41e88:	dd800404 	addi	r22,sp,16
   41e8c:	003eb506 	br	41964 <__alt_mem_onchip_memory2_1+0xfffc0964>
   41e90:	d9002c17 	ldw	r4,176(sp)
   41e94:	d9801e04 	addi	r6,sp,120
   41e98:	b80b883a 	mov	r5,r23
   41e9c:	0047ea40 	call	47ea4 <__sprint_r>
   41ea0:	103b831e 	bne	r2,zero,40cb0 <__alt_mem_onchip_memory2_1+0xfffbfcb0>
   41ea4:	d8c02017 	ldw	r3,128(sp)
   41ea8:	dc401f17 	ldw	r17,124(sp)
   41eac:	da000404 	addi	r8,sp,16
   41eb0:	003e8d06 	br	418e8 <__alt_mem_onchip_memory2_1+0xfffc08e8>
   41eb4:	d9002c17 	ldw	r4,176(sp)
   41eb8:	d9801e04 	addi	r6,sp,120
   41ebc:	b80b883a 	mov	r5,r23
   41ec0:	0047ea40 	call	47ea4 <__sprint_r>
   41ec4:	103b7a1e 	bne	r2,zero,40cb0 <__alt_mem_onchip_memory2_1+0xfffbfcb0>
   41ec8:	d8c02017 	ldw	r3,128(sp)
   41ecc:	dc401f17 	ldw	r17,124(sp)
   41ed0:	dd800404 	addi	r22,sp,16
   41ed4:	003e8f06 	br	41914 <__alt_mem_onchip_memory2_1+0xfffc0914>
   41ed8:	0027883a 	mov	r19,zero
   41edc:	003f4a06 	br	41c08 <__alt_mem_onchip_memory2_1+0xfffc0c08>
   41ee0:	d9002c17 	ldw	r4,176(sp)
   41ee4:	d9801e04 	addi	r6,sp,120
   41ee8:	b80b883a 	mov	r5,r23
   41eec:	0047ea40 	call	47ea4 <__sprint_r>
   41ef0:	103b6f1e 	bne	r2,zero,40cb0 <__alt_mem_onchip_memory2_1+0xfffbfcb0>
   41ef4:	d8c02017 	ldw	r3,128(sp)
   41ef8:	da000404 	addi	r8,sp,16
   41efc:	003c9d06 	br	41174 <__alt_mem_onchip_memory2_1+0xfffc0174>
   41f00:	04e7c83a 	sub	r19,zero,r19
   41f04:	9804c03a 	cmpne	r2,r19,zero
   41f08:	05adc83a 	sub	r22,zero,r22
   41f0c:	b0adc83a 	sub	r22,r22,r2
   41f10:	d8802917 	ldw	r2,164(sp)
   41f14:	07000b44 	movi	fp,45
   41f18:	df002785 	stb	fp,158(sp)
   41f1c:	10017b16 	blt	r2,zero,4250c <___vfprintf_internal_r+0x1c64>
   41f20:	00bfdfc4 	movi	r2,-129
   41f24:	90a4703a 	and	r18,r18,r2
   41f28:	003bb106 	br	40df0 <__alt_mem_onchip_memory2_1+0xfffbfdf0>
   41f2c:	d9003617 	ldw	r4,216(sp)
   41f30:	d9403817 	ldw	r5,224(sp)
   41f34:	da003d15 	stw	r8,244(sp)
   41f38:	0047ac80 	call	47ac8 <__fpclassifyd>
   41f3c:	da003d17 	ldw	r8,244(sp)
   41f40:	1000f026 	beq	r2,zero,42304 <___vfprintf_internal_r+0x1a5c>
   41f44:	d9002917 	ldw	r4,164(sp)
   41f48:	05bff7c4 	movi	r22,-33
   41f4c:	00bfffc4 	movi	r2,-1
   41f50:	8dac703a 	and	r22,r17,r22
   41f54:	20820026 	beq	r4,r2,42758 <___vfprintf_internal_r+0x1eb0>
   41f58:	008011c4 	movi	r2,71
   41f5c:	b081f726 	beq	r22,r2,4273c <___vfprintf_internal_r+0x1e94>
   41f60:	d9003817 	ldw	r4,224(sp)
   41f64:	90c04014 	ori	r3,r18,256
   41f68:	d8c02b15 	stw	r3,172(sp)
   41f6c:	20021516 	blt	r4,zero,427c4 <___vfprintf_internal_r+0x1f1c>
   41f70:	dcc03817 	ldw	r19,224(sp)
   41f74:	d8002a05 	stb	zero,168(sp)
   41f78:	00801984 	movi	r2,102
   41f7c:	8881f926 	beq	r17,r2,42764 <___vfprintf_internal_r+0x1ebc>
   41f80:	00801184 	movi	r2,70
   41f84:	88821c26 	beq	r17,r2,427f8 <___vfprintf_internal_r+0x1f50>
   41f88:	00801144 	movi	r2,69
   41f8c:	b081ef26 	beq	r22,r2,4274c <___vfprintf_internal_r+0x1ea4>
   41f90:	d8c02917 	ldw	r3,164(sp)
   41f94:	d8802104 	addi	r2,sp,132
   41f98:	d8800315 	stw	r2,12(sp)
   41f9c:	d9403617 	ldw	r5,216(sp)
   41fa0:	d8802504 	addi	r2,sp,148
   41fa4:	d9002c17 	ldw	r4,176(sp)
   41fa8:	d8800215 	stw	r2,8(sp)
   41fac:	d8802604 	addi	r2,sp,152
   41fb0:	d8c00015 	stw	r3,0(sp)
   41fb4:	d8800115 	stw	r2,4(sp)
   41fb8:	01c00084 	movi	r7,2
   41fbc:	980d883a 	mov	r6,r19
   41fc0:	d8c03c15 	stw	r3,240(sp)
   41fc4:	da003d15 	stw	r8,244(sp)
   41fc8:	0042ecc0 	call	42ecc <_dtoa_r>
   41fcc:	1021883a 	mov	r16,r2
   41fd0:	008019c4 	movi	r2,103
   41fd4:	d8c03c17 	ldw	r3,240(sp)
   41fd8:	da003d17 	ldw	r8,244(sp)
   41fdc:	88817126 	beq	r17,r2,425a4 <___vfprintf_internal_r+0x1cfc>
   41fe0:	008011c4 	movi	r2,71
   41fe4:	88829226 	beq	r17,r2,42a30 <___vfprintf_internal_r+0x2188>
   41fe8:	80f9883a 	add	fp,r16,r3
   41fec:	d9003617 	ldw	r4,216(sp)
   41ff0:	000d883a 	mov	r6,zero
   41ff4:	000f883a 	mov	r7,zero
   41ff8:	980b883a 	mov	r5,r19
   41ffc:	da003d15 	stw	r8,244(sp)
   42000:	004bb1c0 	call	4bb1c <__eqdf2>
   42004:	da003d17 	ldw	r8,244(sp)
   42008:	10018d26 	beq	r2,zero,42640 <___vfprintf_internal_r+0x1d98>
   4200c:	d8802117 	ldw	r2,132(sp)
   42010:	1700062e 	bgeu	r2,fp,4202c <___vfprintf_internal_r+0x1784>
   42014:	01000c04 	movi	r4,48
   42018:	10c00044 	addi	r3,r2,1
   4201c:	d8c02115 	stw	r3,132(sp)
   42020:	11000005 	stb	r4,0(r2)
   42024:	d8802117 	ldw	r2,132(sp)
   42028:	173ffb36 	bltu	r2,fp,42018 <__alt_mem_onchip_memory2_1+0xfffc1018>
   4202c:	1405c83a 	sub	r2,r2,r16
   42030:	d8803315 	stw	r2,204(sp)
   42034:	008011c4 	movi	r2,71
   42038:	b0817626 	beq	r22,r2,42614 <___vfprintf_internal_r+0x1d6c>
   4203c:	00801944 	movi	r2,101
   42040:	1442810e 	bge	r2,r17,42a48 <___vfprintf_internal_r+0x21a0>
   42044:	d8c02617 	ldw	r3,152(sp)
   42048:	00801984 	movi	r2,102
   4204c:	d8c03215 	stw	r3,200(sp)
   42050:	8881fe26 	beq	r17,r2,4284c <___vfprintf_internal_r+0x1fa4>
   42054:	d8c03217 	ldw	r3,200(sp)
   42058:	d9003317 	ldw	r4,204(sp)
   4205c:	1901dd16 	blt	r3,r4,427d4 <___vfprintf_internal_r+0x1f2c>
   42060:	9480004c 	andi	r18,r18,1
   42064:	90022b1e 	bne	r18,zero,42914 <___vfprintf_internal_r+0x206c>
   42068:	1805883a 	mov	r2,r3
   4206c:	18028016 	blt	r3,zero,42a70 <___vfprintf_internal_r+0x21c8>
   42070:	d8c03217 	ldw	r3,200(sp)
   42074:	044019c4 	movi	r17,103
   42078:	d8c02e15 	stw	r3,184(sp)
   4207c:	df002a07 	ldb	fp,168(sp)
   42080:	e001531e 	bne	fp,zero,425d0 <___vfprintf_internal_r+0x1d28>
   42084:	df002783 	ldbu	fp,158(sp)
   42088:	d8802a15 	stw	r2,168(sp)
   4208c:	dc802b17 	ldw	r18,172(sp)
   42090:	d8002915 	stw	zero,164(sp)
   42094:	003bd106 	br	40fdc <__alt_mem_onchip_memory2_1+0xfffbffdc>
   42098:	d8802d17 	ldw	r2,180(sp)
   4209c:	d8c02d17 	ldw	r3,180(sp)
   420a0:	d9002d17 	ldw	r4,180(sp)
   420a4:	10800017 	ldw	r2,0(r2)
   420a8:	18c00117 	ldw	r3,4(r3)
   420ac:	21000204 	addi	r4,r4,8
   420b0:	d8803615 	stw	r2,216(sp)
   420b4:	d8c03815 	stw	r3,224(sp)
   420b8:	d9002d15 	stw	r4,180(sp)
   420bc:	003b7506 	br	40e94 <__alt_mem_onchip_memory2_1+0xfffbfe94>
   420c0:	ac400007 	ldb	r17,0(r21)
   420c4:	003a5906 	br	40a2c <__alt_mem_onchip_memory2_1+0xfffbfa2c>
   420c8:	9080100c 	andi	r2,r18,64
   420cc:	1000a826 	beq	r2,zero,42370 <___vfprintf_internal_r+0x1ac8>
   420d0:	d9002d17 	ldw	r4,180(sp)
   420d4:	002d883a 	mov	r22,zero
   420d8:	24c0000b 	ldhu	r19,0(r4)
   420dc:	21000104 	addi	r4,r4,4
   420e0:	d9002d15 	stw	r4,180(sp)
   420e4:	003ccb06 	br	41414 <__alt_mem_onchip_memory2_1+0xfffc0414>
   420e8:	d8c02d17 	ldw	r3,180(sp)
   420ec:	d9002917 	ldw	r4,164(sp)
   420f0:	002d883a 	mov	r22,zero
   420f4:	18800104 	addi	r2,r3,4
   420f8:	1cc00017 	ldw	r19,0(r3)
   420fc:	203ebb0e 	bge	r4,zero,41bec <__alt_mem_onchip_memory2_1+0xfffc0bec>
   42100:	003ef106 	br	41cc8 <__alt_mem_onchip_memory2_1+0xfffc0cc8>
   42104:	9080040c 	andi	r2,r18,16
   42108:	1000921e 	bne	r2,zero,42354 <___vfprintf_internal_r+0x1aac>
   4210c:	9480100c 	andi	r18,r18,64
   42110:	90013926 	beq	r18,zero,425f8 <___vfprintf_internal_r+0x1d50>
   42114:	d9002d17 	ldw	r4,180(sp)
   42118:	d9402f17 	ldw	r5,188(sp)
   4211c:	20800017 	ldw	r2,0(r4)
   42120:	21000104 	addi	r4,r4,4
   42124:	d9002d15 	stw	r4,180(sp)
   42128:	1140000d 	sth	r5,0(r2)
   4212c:	003a1606 	br	40988 <__alt_mem_onchip_memory2_1+0xfffbf988>
   42130:	9080100c 	andi	r2,r18,64
   42134:	10008026 	beq	r2,zero,42338 <___vfprintf_internal_r+0x1a90>
   42138:	d8c02d17 	ldw	r3,180(sp)
   4213c:	1cc0000f 	ldh	r19,0(r3)
   42140:	18c00104 	addi	r3,r3,4
   42144:	d8c02d15 	stw	r3,180(sp)
   42148:	982dd7fa 	srai	r22,r19,31
   4214c:	b005883a 	mov	r2,r22
   42150:	003b1f06 	br	40dd0 <__alt_mem_onchip_memory2_1+0xfffbfdd0>
   42154:	9080100c 	andi	r2,r18,64
   42158:	d8002785 	stb	zero,158(sp)
   4215c:	10008a1e 	bne	r2,zero,42388 <___vfprintf_internal_r+0x1ae0>
   42160:	d9402d17 	ldw	r5,180(sp)
   42164:	d8c02917 	ldw	r3,164(sp)
   42168:	002d883a 	mov	r22,zero
   4216c:	28800104 	addi	r2,r5,4
   42170:	2cc00017 	ldw	r19,0(r5)
   42174:	183e4b0e 	bge	r3,zero,41aa4 <__alt_mem_onchip_memory2_1+0xfffc0aa4>
   42178:	9d86b03a 	or	r3,r19,r22
   4217c:	d8802d15 	stw	r2,180(sp)
   42180:	183e4c1e 	bne	r3,zero,41ab4 <__alt_mem_onchip_memory2_1+0xfffc0ab4>
   42184:	0039883a 	mov	fp,zero
   42188:	0005883a 	mov	r2,zero
   4218c:	003d4006 	br	41690 <__alt_mem_onchip_memory2_1+0xfffc0690>
   42190:	01400174 	movhi	r5,5
   42194:	297e9384 	addi	r5,r5,-1458
   42198:	d9402b15 	stw	r5,172(sp)
   4219c:	d9402b17 	ldw	r5,172(sp)
   421a0:	1c47883a 	add	r3,r3,r17
   421a4:	10800044 	addi	r2,r2,1
   421a8:	41400015 	stw	r5,0(r8)
   421ac:	44400115 	stw	r17,4(r8)
   421b0:	d8c02015 	stw	r3,128(sp)
   421b4:	d8801f15 	stw	r2,124(sp)
   421b8:	010001c4 	movi	r4,7
   421bc:	20bec816 	blt	r4,r2,41ce0 <__alt_mem_onchip_memory2_1+0xfffc0ce0>
   421c0:	42000204 	addi	r8,r8,8
   421c4:	003ecd06 	br	41cfc <__alt_mem_onchip_memory2_1+0xfffc0cfc>
   421c8:	d9002917 	ldw	r4,164(sp)
   421cc:	d8002785 	stb	zero,158(sp)
   421d0:	203d2d16 	blt	r4,zero,41688 <__alt_mem_onchip_memory2_1+0xfffc0688>
   421d4:	00bfdfc4 	movi	r2,-129
   421d8:	90a4703a 	and	r18,r18,r2
   421dc:	003a9106 	br	40c24 <__alt_mem_onchip_memory2_1+0xfffbfc24>
   421e0:	01000174 	movhi	r4,5
   421e4:	213e9384 	addi	r4,r4,-1458
   421e8:	d9002b15 	stw	r4,172(sp)
   421ec:	003c0c06 	br	41220 <__alt_mem_onchip_memory2_1+0xfffc0220>
   421f0:	d9002c17 	ldw	r4,176(sp)
   421f4:	d9801e04 	addi	r6,sp,120
   421f8:	b80b883a 	mov	r5,r23
   421fc:	0047ea40 	call	47ea4 <__sprint_r>
   42200:	103aab1e 	bne	r2,zero,40cb0 <__alt_mem_onchip_memory2_1+0xfffbfcb0>
   42204:	d8c02017 	ldw	r3,128(sp)
   42208:	da000404 	addi	r8,sp,16
   4220c:	003d4106 	br	41714 <__alt_mem_onchip_memory2_1+0xfffc0714>
   42210:	d8801f17 	ldw	r2,124(sp)
   42214:	01400174 	movhi	r5,5
   42218:	01000044 	movi	r4,1
   4221c:	18c00044 	addi	r3,r3,1
   42220:	10800044 	addi	r2,r2,1
   42224:	297e9304 	addi	r5,r5,-1460
   42228:	41000115 	stw	r4,4(r8)
   4222c:	41400015 	stw	r5,0(r8)
   42230:	d8c02015 	stw	r3,128(sp)
   42234:	d8801f15 	stw	r2,124(sp)
   42238:	010001c4 	movi	r4,7
   4223c:	20805c16 	blt	r4,r2,423b0 <___vfprintf_internal_r+0x1b08>
   42240:	42000204 	addi	r8,r8,8
   42244:	8800041e 	bne	r17,zero,42258 <___vfprintf_internal_r+0x19b0>
   42248:	d8803317 	ldw	r2,204(sp)
   4224c:	1000021e 	bne	r2,zero,42258 <___vfprintf_internal_r+0x19b0>
   42250:	9080004c 	andi	r2,r18,1
   42254:	103c0926 	beq	r2,zero,4127c <__alt_mem_onchip_memory2_1+0xfffc027c>
   42258:	d9003717 	ldw	r4,220(sp)
   4225c:	d8801f17 	ldw	r2,124(sp)
   42260:	d9403417 	ldw	r5,208(sp)
   42264:	20c7883a 	add	r3,r4,r3
   42268:	10800044 	addi	r2,r2,1
   4226c:	41000115 	stw	r4,4(r8)
   42270:	41400015 	stw	r5,0(r8)
   42274:	d8c02015 	stw	r3,128(sp)
   42278:	d8801f15 	stw	r2,124(sp)
   4227c:	010001c4 	movi	r4,7
   42280:	20812116 	blt	r4,r2,42708 <___vfprintf_internal_r+0x1e60>
   42284:	42000204 	addi	r8,r8,8
   42288:	0463c83a 	sub	r17,zero,r17
   4228c:	0440730e 	bge	zero,r17,4245c <___vfprintf_internal_r+0x1bb4>
   42290:	05800404 	movi	r22,16
   42294:	b440860e 	bge	r22,r17,424b0 <___vfprintf_internal_r+0x1c08>
   42298:	01400174 	movhi	r5,5
   4229c:	297e9384 	addi	r5,r5,-1458
   422a0:	d9402b15 	stw	r5,172(sp)
   422a4:	070001c4 	movi	fp,7
   422a8:	dcc02c17 	ldw	r19,176(sp)
   422ac:	00000306 	br	422bc <___vfprintf_internal_r+0x1a14>
   422b0:	42000204 	addi	r8,r8,8
   422b4:	8c7ffc04 	addi	r17,r17,-16
   422b8:	b440800e 	bge	r22,r17,424bc <___vfprintf_internal_r+0x1c14>
   422bc:	18c00404 	addi	r3,r3,16
   422c0:	10800044 	addi	r2,r2,1
   422c4:	45000015 	stw	r20,0(r8)
   422c8:	45800115 	stw	r22,4(r8)
   422cc:	d8c02015 	stw	r3,128(sp)
   422d0:	d8801f15 	stw	r2,124(sp)
   422d4:	e0bff60e 	bge	fp,r2,422b0 <__alt_mem_onchip_memory2_1+0xfffc12b0>
   422d8:	d9801e04 	addi	r6,sp,120
   422dc:	b80b883a 	mov	r5,r23
   422e0:	9809883a 	mov	r4,r19
   422e4:	0047ea40 	call	47ea4 <__sprint_r>
   422e8:	103a711e 	bne	r2,zero,40cb0 <__alt_mem_onchip_memory2_1+0xfffbfcb0>
   422ec:	d8c02017 	ldw	r3,128(sp)
   422f0:	d8801f17 	ldw	r2,124(sp)
   422f4:	da000404 	addi	r8,sp,16
   422f8:	003fee06 	br	422b4 <__alt_mem_onchip_memory2_1+0xfffc12b4>
   422fc:	00bfffc4 	movi	r2,-1
   42300:	003a6f06 	br	40cc0 <__alt_mem_onchip_memory2_1+0xfffbfcc0>
   42304:	008011c4 	movi	r2,71
   42308:	1440b816 	blt	r2,r17,425ec <___vfprintf_internal_r+0x1d44>
   4230c:	04000174 	movhi	r16,5
   42310:	843e8504 	addi	r16,r16,-1516
   42314:	00c000c4 	movi	r3,3
   42318:	00bfdfc4 	movi	r2,-129
   4231c:	d8c02a15 	stw	r3,168(sp)
   42320:	90a4703a 	and	r18,r18,r2
   42324:	df002783 	ldbu	fp,158(sp)
   42328:	d8c02e15 	stw	r3,184(sp)
   4232c:	d8002915 	stw	zero,164(sp)
   42330:	d8003215 	stw	zero,200(sp)
   42334:	003b2906 	br	40fdc <__alt_mem_onchip_memory2_1+0xfffbffdc>
   42338:	d9002d17 	ldw	r4,180(sp)
   4233c:	24c00017 	ldw	r19,0(r4)
   42340:	21000104 	addi	r4,r4,4
   42344:	d9002d15 	stw	r4,180(sp)
   42348:	982dd7fa 	srai	r22,r19,31
   4234c:	b005883a 	mov	r2,r22
   42350:	003a9f06 	br	40dd0 <__alt_mem_onchip_memory2_1+0xfffbfdd0>
   42354:	d9402d17 	ldw	r5,180(sp)
   42358:	d8c02f17 	ldw	r3,188(sp)
   4235c:	28800017 	ldw	r2,0(r5)
   42360:	29400104 	addi	r5,r5,4
   42364:	d9402d15 	stw	r5,180(sp)
   42368:	10c00015 	stw	r3,0(r2)
   4236c:	00398606 	br	40988 <__alt_mem_onchip_memory2_1+0xfffbf988>
   42370:	d9402d17 	ldw	r5,180(sp)
   42374:	002d883a 	mov	r22,zero
   42378:	2cc00017 	ldw	r19,0(r5)
   4237c:	29400104 	addi	r5,r5,4
   42380:	d9402d15 	stw	r5,180(sp)
   42384:	003c2306 	br	41414 <__alt_mem_onchip_memory2_1+0xfffc0414>
   42388:	d8c02d17 	ldw	r3,180(sp)
   4238c:	d9002917 	ldw	r4,164(sp)
   42390:	002d883a 	mov	r22,zero
   42394:	18800104 	addi	r2,r3,4
   42398:	1cc0000b 	ldhu	r19,0(r3)
   4239c:	203dc10e 	bge	r4,zero,41aa4 <__alt_mem_onchip_memory2_1+0xfffc0aa4>
   423a0:	003f7506 	br	42178 <__alt_mem_onchip_memory2_1+0xfffc1178>
   423a4:	04000174 	movhi	r16,5
   423a8:	843e8304 	addi	r16,r16,-1524
   423ac:	003acc06 	br	40ee0 <__alt_mem_onchip_memory2_1+0xfffbfee0>
   423b0:	d9002c17 	ldw	r4,176(sp)
   423b4:	d9801e04 	addi	r6,sp,120
   423b8:	b80b883a 	mov	r5,r23
   423bc:	0047ea40 	call	47ea4 <__sprint_r>
   423c0:	103a3b1e 	bne	r2,zero,40cb0 <__alt_mem_onchip_memory2_1+0xfffbfcb0>
   423c4:	dc402617 	ldw	r17,152(sp)
   423c8:	d8c02017 	ldw	r3,128(sp)
   423cc:	da000404 	addi	r8,sp,16
   423d0:	003f9c06 	br	42244 <__alt_mem_onchip_memory2_1+0xfffc1244>
   423d4:	ac400043 	ldbu	r17,1(r21)
   423d8:	94800814 	ori	r18,r18,32
   423dc:	ad400044 	addi	r21,r21,1
   423e0:	8c403fcc 	andi	r17,r17,255
   423e4:	8c40201c 	xori	r17,r17,128
   423e8:	8c7fe004 	addi	r17,r17,-128
   423ec:	00398f06 	br	40a2c <__alt_mem_onchip_memory2_1+0xfffbfa2c>
   423f0:	d8c02d15 	stw	r3,180(sp)
   423f4:	0039883a 	mov	fp,zero
   423f8:	003e3506 	br	41cd0 <__alt_mem_onchip_memory2_1+0xfffc0cd0>
   423fc:	d9002c17 	ldw	r4,176(sp)
   42400:	d9801e04 	addi	r6,sp,120
   42404:	b80b883a 	mov	r5,r23
   42408:	0047ea40 	call	47ea4 <__sprint_r>
   4240c:	103a281e 	bne	r2,zero,40cb0 <__alt_mem_onchip_memory2_1+0xfffbfcb0>
   42410:	d8c02017 	ldw	r3,128(sp)
   42414:	da000404 	addi	r8,sp,16
   42418:	003cd006 	br	4175c <__alt_mem_onchip_memory2_1+0xfffc075c>
   4241c:	8009883a 	mov	r4,r16
   42420:	da003d15 	stw	r8,244(sp)
   42424:	00408100 	call	40810 <strlen>
   42428:	d8802e15 	stw	r2,184(sp)
   4242c:	da003d17 	ldw	r8,244(sp)
   42430:	103c340e 	bge	r2,zero,41504 <__alt_mem_onchip_memory2_1+0xfffc0504>
   42434:	0005883a 	mov	r2,zero
   42438:	003c3206 	br	41504 <__alt_mem_onchip_memory2_1+0xfffc0504>
   4243c:	d9002c17 	ldw	r4,176(sp)
   42440:	d9801e04 	addi	r6,sp,120
   42444:	b80b883a 	mov	r5,r23
   42448:	0047ea40 	call	47ea4 <__sprint_r>
   4244c:	103a181e 	bne	r2,zero,40cb0 <__alt_mem_onchip_memory2_1+0xfffbfcb0>
   42450:	d8c02017 	ldw	r3,128(sp)
   42454:	d8801f17 	ldw	r2,124(sp)
   42458:	da000404 	addi	r8,sp,16
   4245c:	d9403317 	ldw	r5,204(sp)
   42460:	10800044 	addi	r2,r2,1
   42464:	44000015 	stw	r16,0(r8)
   42468:	28c7883a 	add	r3,r5,r3
   4246c:	003b7d06 	br	41264 <__alt_mem_onchip_memory2_1+0xfffc0264>
   42470:	01000174 	movhi	r4,5
   42474:	213e9784 	addi	r4,r4,-1442
   42478:	d9003515 	stw	r4,212(sp)
   4247c:	003b1406 	br	410d0 <__alt_mem_onchip_memory2_1+0xfffc00d0>
   42480:	013fffc4 	movi	r4,-1
   42484:	003a3506 	br	40d5c <__alt_mem_onchip_memory2_1+0xfffbfd5c>
   42488:	0023883a 	mov	r17,zero
   4248c:	003d9d06 	br	41b04 <__alt_mem_onchip_memory2_1+0xfffc0b04>
   42490:	d9002c17 	ldw	r4,176(sp)
   42494:	d9801e04 	addi	r6,sp,120
   42498:	b80b883a 	mov	r5,r23
   4249c:	0047ea40 	call	47ea4 <__sprint_r>
   424a0:	103a031e 	bne	r2,zero,40cb0 <__alt_mem_onchip_memory2_1+0xfffbfcb0>
   424a4:	d8c02017 	ldw	r3,128(sp)
   424a8:	da000404 	addi	r8,sp,16
   424ac:	003d9406 	br	41b00 <__alt_mem_onchip_memory2_1+0xfffc0b00>
   424b0:	01000174 	movhi	r4,5
   424b4:	213e9384 	addi	r4,r4,-1458
   424b8:	d9002b15 	stw	r4,172(sp)
   424bc:	d9002b17 	ldw	r4,172(sp)
   424c0:	1c47883a 	add	r3,r3,r17
   424c4:	10800044 	addi	r2,r2,1
   424c8:	41000015 	stw	r4,0(r8)
   424cc:	44400115 	stw	r17,4(r8)
   424d0:	d8c02015 	stw	r3,128(sp)
   424d4:	d8801f15 	stw	r2,124(sp)
   424d8:	010001c4 	movi	r4,7
   424dc:	20bfd716 	blt	r4,r2,4243c <__alt_mem_onchip_memory2_1+0xfffc143c>
   424e0:	42000204 	addi	r8,r8,8
   424e4:	003fdd06 	br	4245c <__alt_mem_onchip_memory2_1+0xfffc145c>
   424e8:	d9002c17 	ldw	r4,176(sp)
   424ec:	d9801e04 	addi	r6,sp,120
   424f0:	b80b883a 	mov	r5,r23
   424f4:	0047ea40 	call	47ea4 <__sprint_r>
   424f8:	1039ed1e 	bne	r2,zero,40cb0 <__alt_mem_onchip_memory2_1+0xfffbfcb0>
   424fc:	d8802617 	ldw	r2,152(sp)
   42500:	d8c02017 	ldw	r3,128(sp)
   42504:	da000404 	addi	r8,sp,16
   42508:	003e1006 	br	41d4c <__alt_mem_onchip_memory2_1+0xfffc0d4c>
   4250c:	00800044 	movi	r2,1
   42510:	10803fcc 	andi	r2,r2,255
   42514:	00c00044 	movi	r3,1
   42518:	10fa3526 	beq	r2,r3,40df0 <__alt_mem_onchip_memory2_1+0xfffbfdf0>
   4251c:	00c00084 	movi	r3,2
   42520:	10fbcb26 	beq	r2,r3,41450 <__alt_mem_onchip_memory2_1+0xfffc0450>
   42524:	003a8f06 	br	40f64 <__alt_mem_onchip_memory2_1+0xfffbff64>
   42528:	01000174 	movhi	r4,5
   4252c:	213e9784 	addi	r4,r4,-1442
   42530:	d9003515 	stw	r4,212(sp)
   42534:	003b7606 	br	41310 <__alt_mem_onchip_memory2_1+0xfffc0310>
   42538:	d8802917 	ldw	r2,164(sp)
   4253c:	00c00184 	movi	r3,6
   42540:	1880012e 	bgeu	r3,r2,42548 <___vfprintf_internal_r+0x1ca0>
   42544:	1805883a 	mov	r2,r3
   42548:	d8802e15 	stw	r2,184(sp)
   4254c:	1000ef16 	blt	r2,zero,4290c <___vfprintf_internal_r+0x2064>
   42550:	04000174 	movhi	r16,5
   42554:	d8802a15 	stw	r2,168(sp)
   42558:	dcc02d15 	stw	r19,180(sp)
   4255c:	d8002915 	stw	zero,164(sp)
   42560:	d8003215 	stw	zero,200(sp)
   42564:	843e9104 	addi	r16,r16,-1468
   42568:	0039883a 	mov	fp,zero
   4256c:	003aa206 	br	40ff8 <__alt_mem_onchip_memory2_1+0xfffbfff8>
   42570:	0021883a 	mov	r16,zero
   42574:	003e0706 	br	41d94 <__alt_mem_onchip_memory2_1+0xfffc0d94>
   42578:	d9002c17 	ldw	r4,176(sp)
   4257c:	d9801e04 	addi	r6,sp,120
   42580:	b80b883a 	mov	r5,r23
   42584:	0047ea40 	call	47ea4 <__sprint_r>
   42588:	1039c91e 	bne	r2,zero,40cb0 <__alt_mem_onchip_memory2_1+0xfffbfcb0>
   4258c:	d8802617 	ldw	r2,152(sp)
   42590:	d9403317 	ldw	r5,204(sp)
   42594:	d8c02017 	ldw	r3,128(sp)
   42598:	da000404 	addi	r8,sp,16
   4259c:	2885c83a 	sub	r2,r5,r2
   425a0:	003dfb06 	br	41d90 <__alt_mem_onchip_memory2_1+0xfffc0d90>
   425a4:	9080004c 	andi	r2,r18,1
   425a8:	103e8f1e 	bne	r2,zero,41fe8 <__alt_mem_onchip_memory2_1+0xfffc0fe8>
   425ac:	d8802117 	ldw	r2,132(sp)
   425b0:	003e9e06 	br	4202c <__alt_mem_onchip_memory2_1+0xfffc102c>
   425b4:	1025883a 	mov	r18,r2
   425b8:	0039883a 	mov	fp,zero
   425bc:	00800084 	movi	r2,2
   425c0:	003fd306 	br	42510 <__alt_mem_onchip_memory2_1+0xfffc1510>
   425c4:	07000b44 	movi	fp,45
   425c8:	df002785 	stb	fp,158(sp)
   425cc:	003a4006 	br	40ed0 <__alt_mem_onchip_memory2_1+0xfffbfed0>
   425d0:	00c00b44 	movi	r3,45
   425d4:	d8c02785 	stb	r3,158(sp)
   425d8:	d8802a15 	stw	r2,168(sp)
   425dc:	dc802b17 	ldw	r18,172(sp)
   425e0:	d8002915 	stw	zero,164(sp)
   425e4:	07000b44 	movi	fp,45
   425e8:	003a8006 	br	40fec <__alt_mem_onchip_memory2_1+0xfffbffec>
   425ec:	04000174 	movhi	r16,5
   425f0:	843e8604 	addi	r16,r16,-1512
   425f4:	003f4706 	br	42314 <__alt_mem_onchip_memory2_1+0xfffc1314>
   425f8:	d8c02d17 	ldw	r3,180(sp)
   425fc:	d9002f17 	ldw	r4,188(sp)
   42600:	18800017 	ldw	r2,0(r3)
   42604:	18c00104 	addi	r3,r3,4
   42608:	d8c02d15 	stw	r3,180(sp)
   4260c:	11000015 	stw	r4,0(r2)
   42610:	0038dd06 	br	40988 <__alt_mem_onchip_memory2_1+0xfffbf988>
   42614:	dd802617 	ldw	r22,152(sp)
   42618:	00bfff44 	movi	r2,-3
   4261c:	b0801c16 	blt	r22,r2,42690 <___vfprintf_internal_r+0x1de8>
   42620:	d9402917 	ldw	r5,164(sp)
   42624:	2d801a16 	blt	r5,r22,42690 <___vfprintf_internal_r+0x1de8>
   42628:	dd803215 	stw	r22,200(sp)
   4262c:	003e8906 	br	42054 <__alt_mem_onchip_memory2_1+0xfffc1054>
   42630:	01000174 	movhi	r4,5
   42634:	213e9384 	addi	r4,r4,-1458
   42638:	d9002b15 	stw	r4,172(sp)
   4263c:	003c9106 	br	41884 <__alt_mem_onchip_memory2_1+0xfffc0884>
   42640:	e005883a 	mov	r2,fp
   42644:	003e7906 	br	4202c <__alt_mem_onchip_memory2_1+0xfffc102c>
   42648:	d9402917 	ldw	r5,164(sp)
   4264c:	df002783 	ldbu	fp,158(sp)
   42650:	dcc02d15 	stw	r19,180(sp)
   42654:	d9402a15 	stw	r5,168(sp)
   42658:	d9402e15 	stw	r5,184(sp)
   4265c:	d8002915 	stw	zero,164(sp)
   42660:	d8003215 	stw	zero,200(sp)
   42664:	003a5d06 	br	40fdc <__alt_mem_onchip_memory2_1+0xfffbffdc>
   42668:	9080004c 	andi	r2,r18,1
   4266c:	0039883a 	mov	fp,zero
   42670:	10000426 	beq	r2,zero,42684 <___vfprintf_internal_r+0x1ddc>
   42674:	00800c04 	movi	r2,48
   42678:	dc001dc4 	addi	r16,sp,119
   4267c:	d8801dc5 	stb	r2,119(sp)
   42680:	003b8006 	br	41484 <__alt_mem_onchip_memory2_1+0xfffc0484>
   42684:	d8002e15 	stw	zero,184(sp)
   42688:	dc001e04 	addi	r16,sp,120
   4268c:	003a4d06 	br	40fc4 <__alt_mem_onchip_memory2_1+0xfffbffc4>
   42690:	8c7fff84 	addi	r17,r17,-2
   42694:	b5bfffc4 	addi	r22,r22,-1
   42698:	dd802615 	stw	r22,152(sp)
   4269c:	dc4022c5 	stb	r17,139(sp)
   426a0:	b000bf16 	blt	r22,zero,429a0 <___vfprintf_internal_r+0x20f8>
   426a4:	00800ac4 	movi	r2,43
   426a8:	d8802305 	stb	r2,140(sp)
   426ac:	00800244 	movi	r2,9
   426b0:	15807016 	blt	r2,r22,42874 <___vfprintf_internal_r+0x1fcc>
   426b4:	00800c04 	movi	r2,48
   426b8:	b5800c04 	addi	r22,r22,48
   426bc:	d8802345 	stb	r2,141(sp)
   426c0:	dd802385 	stb	r22,142(sp)
   426c4:	d88023c4 	addi	r2,sp,143
   426c8:	df0022c4 	addi	fp,sp,139
   426cc:	d8c03317 	ldw	r3,204(sp)
   426d0:	1739c83a 	sub	fp,r2,fp
   426d4:	d9003317 	ldw	r4,204(sp)
   426d8:	e0c7883a 	add	r3,fp,r3
   426dc:	df003a15 	stw	fp,232(sp)
   426e0:	d8c02e15 	stw	r3,184(sp)
   426e4:	00800044 	movi	r2,1
   426e8:	1100b30e 	bge	r2,r4,429b8 <___vfprintf_internal_r+0x2110>
   426ec:	d8c02e17 	ldw	r3,184(sp)
   426f0:	18c00044 	addi	r3,r3,1
   426f4:	d8c02e15 	stw	r3,184(sp)
   426f8:	1805883a 	mov	r2,r3
   426fc:	1800ac16 	blt	r3,zero,429b0 <___vfprintf_internal_r+0x2108>
   42700:	d8003215 	stw	zero,200(sp)
   42704:	003e5d06 	br	4207c <__alt_mem_onchip_memory2_1+0xfffc107c>
   42708:	d9002c17 	ldw	r4,176(sp)
   4270c:	d9801e04 	addi	r6,sp,120
   42710:	b80b883a 	mov	r5,r23
   42714:	0047ea40 	call	47ea4 <__sprint_r>
   42718:	1039651e 	bne	r2,zero,40cb0 <__alt_mem_onchip_memory2_1+0xfffbfcb0>
   4271c:	dc402617 	ldw	r17,152(sp)
   42720:	d8c02017 	ldw	r3,128(sp)
   42724:	d8801f17 	ldw	r2,124(sp)
   42728:	da000404 	addi	r8,sp,16
   4272c:	003ed606 	br	42288 <__alt_mem_onchip_memory2_1+0xfffc1288>
   42730:	582b883a 	mov	r21,r11
   42734:	d8002915 	stw	zero,164(sp)
   42738:	0038bd06 	br	40a30 <__alt_mem_onchip_memory2_1+0xfffbfa30>
   4273c:	d8802917 	ldw	r2,164(sp)
   42740:	103e071e 	bne	r2,zero,41f60 <__alt_mem_onchip_memory2_1+0xfffc0f60>
   42744:	dc002915 	stw	r16,164(sp)
   42748:	003e0506 	br	41f60 <__alt_mem_onchip_memory2_1+0xfffc0f60>
   4274c:	d9002917 	ldw	r4,164(sp)
   42750:	20c00044 	addi	r3,r4,1
   42754:	003e0f06 	br	41f94 <__alt_mem_onchip_memory2_1+0xfffc0f94>
   42758:	01400184 	movi	r5,6
   4275c:	d9402915 	stw	r5,164(sp)
   42760:	003dff06 	br	41f60 <__alt_mem_onchip_memory2_1+0xfffc0f60>
   42764:	d8802104 	addi	r2,sp,132
   42768:	d8800315 	stw	r2,12(sp)
   4276c:	d8802504 	addi	r2,sp,148
   42770:	d8800215 	stw	r2,8(sp)
   42774:	d8802604 	addi	r2,sp,152
   42778:	d8800115 	stw	r2,4(sp)
   4277c:	d8802917 	ldw	r2,164(sp)
   42780:	d9403617 	ldw	r5,216(sp)
   42784:	d9002c17 	ldw	r4,176(sp)
   42788:	d8800015 	stw	r2,0(sp)
   4278c:	01c000c4 	movi	r7,3
   42790:	980d883a 	mov	r6,r19
   42794:	da003d15 	stw	r8,244(sp)
   42798:	0042ecc0 	call	42ecc <_dtoa_r>
   4279c:	d8c02917 	ldw	r3,164(sp)
   427a0:	da003d17 	ldw	r8,244(sp)
   427a4:	1021883a 	mov	r16,r2
   427a8:	10f9883a 	add	fp,r2,r3
   427ac:	81000007 	ldb	r4,0(r16)
   427b0:	00800c04 	movi	r2,48
   427b4:	20805e26 	beq	r4,r2,42930 <___vfprintf_internal_r+0x2088>
   427b8:	d8c02617 	ldw	r3,152(sp)
   427bc:	e0f9883a 	add	fp,fp,r3
   427c0:	003e0a06 	br	41fec <__alt_mem_onchip_memory2_1+0xfffc0fec>
   427c4:	00c00b44 	movi	r3,45
   427c8:	24e0003c 	xorhi	r19,r4,32768
   427cc:	d8c02a05 	stb	r3,168(sp)
   427d0:	003de906 	br	41f78 <__alt_mem_onchip_memory2_1+0xfffc0f78>
   427d4:	d8c03217 	ldw	r3,200(sp)
   427d8:	00c07a0e 	bge	zero,r3,429c4 <___vfprintf_internal_r+0x211c>
   427dc:	00800044 	movi	r2,1
   427e0:	d9003317 	ldw	r4,204(sp)
   427e4:	1105883a 	add	r2,r2,r4
   427e8:	d8802e15 	stw	r2,184(sp)
   427ec:	10004e16 	blt	r2,zero,42928 <___vfprintf_internal_r+0x2080>
   427f0:	044019c4 	movi	r17,103
   427f4:	003e2106 	br	4207c <__alt_mem_onchip_memory2_1+0xfffc107c>
   427f8:	d9002917 	ldw	r4,164(sp)
   427fc:	d8802104 	addi	r2,sp,132
   42800:	d8800315 	stw	r2,12(sp)
   42804:	d9000015 	stw	r4,0(sp)
   42808:	d8802504 	addi	r2,sp,148
   4280c:	d9403617 	ldw	r5,216(sp)
   42810:	d9002c17 	ldw	r4,176(sp)
   42814:	d8800215 	stw	r2,8(sp)
   42818:	d8802604 	addi	r2,sp,152
   4281c:	d8800115 	stw	r2,4(sp)
   42820:	01c000c4 	movi	r7,3
   42824:	980d883a 	mov	r6,r19
   42828:	da003d15 	stw	r8,244(sp)
   4282c:	0042ecc0 	call	42ecc <_dtoa_r>
   42830:	d8c02917 	ldw	r3,164(sp)
   42834:	da003d17 	ldw	r8,244(sp)
   42838:	1021883a 	mov	r16,r2
   4283c:	00801184 	movi	r2,70
   42840:	80f9883a 	add	fp,r16,r3
   42844:	88bfd926 	beq	r17,r2,427ac <__alt_mem_onchip_memory2_1+0xfffc17ac>
   42848:	003de806 	br	41fec <__alt_mem_onchip_memory2_1+0xfffc0fec>
   4284c:	d9002917 	ldw	r4,164(sp)
   42850:	00c04d0e 	bge	zero,r3,42988 <___vfprintf_internal_r+0x20e0>
   42854:	2000441e 	bne	r4,zero,42968 <___vfprintf_internal_r+0x20c0>
   42858:	9480004c 	andi	r18,r18,1
   4285c:	9000421e 	bne	r18,zero,42968 <___vfprintf_internal_r+0x20c0>
   42860:	1805883a 	mov	r2,r3
   42864:	18007016 	blt	r3,zero,42a28 <___vfprintf_internal_r+0x2180>
   42868:	d8c03217 	ldw	r3,200(sp)
   4286c:	d8c02e15 	stw	r3,184(sp)
   42870:	003e0206 	br	4207c <__alt_mem_onchip_memory2_1+0xfffc107c>
   42874:	df0022c4 	addi	fp,sp,139
   42878:	dc002915 	stw	r16,164(sp)
   4287c:	4027883a 	mov	r19,r8
   42880:	e021883a 	mov	r16,fp
   42884:	b009883a 	mov	r4,r22
   42888:	01400284 	movi	r5,10
   4288c:	004a8580 	call	4a858 <__modsi3>
   42890:	10800c04 	addi	r2,r2,48
   42894:	843fffc4 	addi	r16,r16,-1
   42898:	b009883a 	mov	r4,r22
   4289c:	01400284 	movi	r5,10
   428a0:	80800005 	stb	r2,0(r16)
   428a4:	004a7d40 	call	4a7d4 <__divsi3>
   428a8:	102d883a 	mov	r22,r2
   428ac:	00800244 	movi	r2,9
   428b0:	15bff416 	blt	r2,r22,42884 <__alt_mem_onchip_memory2_1+0xfffc1884>
   428b4:	9811883a 	mov	r8,r19
   428b8:	b0800c04 	addi	r2,r22,48
   428bc:	8027883a 	mov	r19,r16
   428c0:	997fffc4 	addi	r5,r19,-1
   428c4:	98bfffc5 	stb	r2,-1(r19)
   428c8:	dc002917 	ldw	r16,164(sp)
   428cc:	2f006a2e 	bgeu	r5,fp,42a78 <___vfprintf_internal_r+0x21d0>
   428d0:	d9c02384 	addi	r7,sp,142
   428d4:	3ccfc83a 	sub	r7,r7,r19
   428d8:	d9002344 	addi	r4,sp,141
   428dc:	e1cf883a 	add	r7,fp,r7
   428e0:	00000106 	br	428e8 <___vfprintf_internal_r+0x2040>
   428e4:	28800003 	ldbu	r2,0(r5)
   428e8:	20800005 	stb	r2,0(r4)
   428ec:	21000044 	addi	r4,r4,1
   428f0:	29400044 	addi	r5,r5,1
   428f4:	393ffb1e 	bne	r7,r4,428e4 <__alt_mem_onchip_memory2_1+0xfffc18e4>
   428f8:	d8802304 	addi	r2,sp,140
   428fc:	14c5c83a 	sub	r2,r2,r19
   42900:	d8c02344 	addi	r3,sp,141
   42904:	1885883a 	add	r2,r3,r2
   42908:	003f7006 	br	426cc <__alt_mem_onchip_memory2_1+0xfffc16cc>
   4290c:	0005883a 	mov	r2,zero
   42910:	003f0f06 	br	42550 <__alt_mem_onchip_memory2_1+0xfffc1550>
   42914:	d8c03217 	ldw	r3,200(sp)
   42918:	18c00044 	addi	r3,r3,1
   4291c:	d8c02e15 	stw	r3,184(sp)
   42920:	1805883a 	mov	r2,r3
   42924:	183fb20e 	bge	r3,zero,427f0 <__alt_mem_onchip_memory2_1+0xfffc17f0>
   42928:	0005883a 	mov	r2,zero
   4292c:	003fb006 	br	427f0 <__alt_mem_onchip_memory2_1+0xfffc17f0>
   42930:	d9003617 	ldw	r4,216(sp)
   42934:	000d883a 	mov	r6,zero
   42938:	000f883a 	mov	r7,zero
   4293c:	980b883a 	mov	r5,r19
   42940:	d8c03c15 	stw	r3,240(sp)
   42944:	da003d15 	stw	r8,244(sp)
   42948:	004bb1c0 	call	4bb1c <__eqdf2>
   4294c:	d8c03c17 	ldw	r3,240(sp)
   42950:	da003d17 	ldw	r8,244(sp)
   42954:	103f9826 	beq	r2,zero,427b8 <__alt_mem_onchip_memory2_1+0xfffc17b8>
   42958:	00800044 	movi	r2,1
   4295c:	10c7c83a 	sub	r3,r2,r3
   42960:	d8c02615 	stw	r3,152(sp)
   42964:	003f9506 	br	427bc <__alt_mem_onchip_memory2_1+0xfffc17bc>
   42968:	d9002917 	ldw	r4,164(sp)
   4296c:	d8c03217 	ldw	r3,200(sp)
   42970:	20800044 	addi	r2,r4,1
   42974:	1885883a 	add	r2,r3,r2
   42978:	d8802e15 	stw	r2,184(sp)
   4297c:	103dbf0e 	bge	r2,zero,4207c <__alt_mem_onchip_memory2_1+0xfffc107c>
   42980:	0005883a 	mov	r2,zero
   42984:	003dbd06 	br	4207c <__alt_mem_onchip_memory2_1+0xfffc107c>
   42988:	2000211e 	bne	r4,zero,42a10 <___vfprintf_internal_r+0x2168>
   4298c:	9480004c 	andi	r18,r18,1
   42990:	90001f1e 	bne	r18,zero,42a10 <___vfprintf_internal_r+0x2168>
   42994:	00800044 	movi	r2,1
   42998:	d8802e15 	stw	r2,184(sp)
   4299c:	003db706 	br	4207c <__alt_mem_onchip_memory2_1+0xfffc107c>
   429a0:	00800b44 	movi	r2,45
   429a4:	05adc83a 	sub	r22,zero,r22
   429a8:	d8802305 	stb	r2,140(sp)
   429ac:	003f3f06 	br	426ac <__alt_mem_onchip_memory2_1+0xfffc16ac>
   429b0:	0005883a 	mov	r2,zero
   429b4:	003f5206 	br	42700 <__alt_mem_onchip_memory2_1+0xfffc1700>
   429b8:	90a4703a 	and	r18,r18,r2
   429bc:	903f4e26 	beq	r18,zero,426f8 <__alt_mem_onchip_memory2_1+0xfffc16f8>
   429c0:	003f4a06 	br	426ec <__alt_mem_onchip_memory2_1+0xfffc16ec>
   429c4:	00800084 	movi	r2,2
   429c8:	10c5c83a 	sub	r2,r2,r3
   429cc:	003f8406 	br	427e0 <__alt_mem_onchip_memory2_1+0xfffc17e0>
   429d0:	d8802d17 	ldw	r2,180(sp)
   429d4:	d9002d17 	ldw	r4,180(sp)
   429d8:	ac400043 	ldbu	r17,1(r21)
   429dc:	10800017 	ldw	r2,0(r2)
   429e0:	582b883a 	mov	r21,r11
   429e4:	d8802915 	stw	r2,164(sp)
   429e8:	20800104 	addi	r2,r4,4
   429ec:	d9002917 	ldw	r4,164(sp)
   429f0:	d8802d15 	stw	r2,180(sp)
   429f4:	203e7a0e 	bge	r4,zero,423e0 <__alt_mem_onchip_memory2_1+0xfffc13e0>
   429f8:	8c403fcc 	andi	r17,r17,255
   429fc:	00bfffc4 	movi	r2,-1
   42a00:	8c40201c 	xori	r17,r17,128
   42a04:	d8802915 	stw	r2,164(sp)
   42a08:	8c7fe004 	addi	r17,r17,-128
   42a0c:	00380706 	br	40a2c <__alt_mem_onchip_memory2_1+0xfffbfa2c>
   42a10:	d8c02917 	ldw	r3,164(sp)
   42a14:	18c00084 	addi	r3,r3,2
   42a18:	d8c02e15 	stw	r3,184(sp)
   42a1c:	1805883a 	mov	r2,r3
   42a20:	183d960e 	bge	r3,zero,4207c <__alt_mem_onchip_memory2_1+0xfffc107c>
   42a24:	003fd606 	br	42980 <__alt_mem_onchip_memory2_1+0xfffc1980>
   42a28:	0005883a 	mov	r2,zero
   42a2c:	003f8e06 	br	42868 <__alt_mem_onchip_memory2_1+0xfffc1868>
   42a30:	9080004c 	andi	r2,r18,1
   42a34:	103f811e 	bne	r2,zero,4283c <__alt_mem_onchip_memory2_1+0xfffc183c>
   42a38:	d8802117 	ldw	r2,132(sp)
   42a3c:	1405c83a 	sub	r2,r2,r16
   42a40:	d8803315 	stw	r2,204(sp)
   42a44:	b47ef326 	beq	r22,r17,42614 <__alt_mem_onchip_memory2_1+0xfffc1614>
   42a48:	dd802617 	ldw	r22,152(sp)
   42a4c:	003f1106 	br	42694 <__alt_mem_onchip_memory2_1+0xfffc1694>
   42a50:	d9c02785 	stb	r7,158(sp)
   42a54:	00390406 	br	40e68 <__alt_mem_onchip_memory2_1+0xfffbfe68>
   42a58:	d9c02785 	stb	r7,158(sp)
   42a5c:	0038d306 	br	40dac <__alt_mem_onchip_memory2_1+0xfffbfdac>
   42a60:	d9c02785 	stb	r7,158(sp)
   42a64:	003a6106 	br	413ec <__alt_mem_onchip_memory2_1+0xfffc03ec>
   42a68:	d9c02785 	stb	r7,158(sp)
   42a6c:	003af806 	br	41650 <__alt_mem_onchip_memory2_1+0xfffc0650>
   42a70:	0005883a 	mov	r2,zero
   42a74:	003d7e06 	br	42070 <__alt_mem_onchip_memory2_1+0xfffc1070>
   42a78:	d8802344 	addi	r2,sp,141
   42a7c:	003f1306 	br	426cc <__alt_mem_onchip_memory2_1+0xfffc16cc>
   42a80:	d9c02785 	stb	r7,158(sp)
   42a84:	00392306 	br	40f14 <__alt_mem_onchip_memory2_1+0xfffbff14>
   42a88:	d9c02785 	stb	r7,158(sp)
   42a8c:	003aa906 	br	41534 <__alt_mem_onchip_memory2_1+0xfffc0534>
   42a90:	d9c02785 	stb	r7,158(sp)
   42a94:	003a3d06 	br	4138c <__alt_mem_onchip_memory2_1+0xfffc038c>
   42a98:	d9c02785 	stb	r7,158(sp)
   42a9c:	003aca06 	br	415c8 <__alt_mem_onchip_memory2_1+0xfffc05c8>

00042aa0 <__vfprintf_internal>:
   42aa0:	00800174 	movhi	r2,5
   42aa4:	1085ee04 	addi	r2,r2,6072
   42aa8:	300f883a 	mov	r7,r6
   42aac:	280d883a 	mov	r6,r5
   42ab0:	200b883a 	mov	r5,r4
   42ab4:	11000017 	ldw	r4,0(r2)
   42ab8:	00408a81 	jmpi	408a8 <___vfprintf_internal_r>

00042abc <__sbprintf>:
   42abc:	2880030b 	ldhu	r2,12(r5)
   42ac0:	2ac01917 	ldw	r11,100(r5)
   42ac4:	2a80038b 	ldhu	r10,14(r5)
   42ac8:	2a400717 	ldw	r9,28(r5)
   42acc:	2a000917 	ldw	r8,36(r5)
   42ad0:	defee204 	addi	sp,sp,-1144
   42ad4:	00c10004 	movi	r3,1024
   42ad8:	dc011a15 	stw	r16,1128(sp)
   42adc:	10bfff4c 	andi	r2,r2,65533
   42ae0:	2821883a 	mov	r16,r5
   42ae4:	d8cb883a 	add	r5,sp,r3
   42ae8:	dc811c15 	stw	r18,1136(sp)
   42aec:	dc411b15 	stw	r17,1132(sp)
   42af0:	dfc11d15 	stw	ra,1140(sp)
   42af4:	2025883a 	mov	r18,r4
   42af8:	d881030d 	sth	r2,1036(sp)
   42afc:	dac11915 	stw	r11,1124(sp)
   42b00:	da81038d 	sth	r10,1038(sp)
   42b04:	da410715 	stw	r9,1052(sp)
   42b08:	da010915 	stw	r8,1060(sp)
   42b0c:	dec10015 	stw	sp,1024(sp)
   42b10:	dec10415 	stw	sp,1040(sp)
   42b14:	d8c10215 	stw	r3,1032(sp)
   42b18:	d8c10515 	stw	r3,1044(sp)
   42b1c:	d8010615 	stw	zero,1048(sp)
   42b20:	00408a80 	call	408a8 <___vfprintf_internal_r>
   42b24:	1023883a 	mov	r17,r2
   42b28:	10000416 	blt	r2,zero,42b3c <__sbprintf+0x80>
   42b2c:	d9410004 	addi	r5,sp,1024
   42b30:	9009883a 	mov	r4,r18
   42b34:	00447700 	call	44770 <_fflush_r>
   42b38:	10000d1e 	bne	r2,zero,42b70 <__sbprintf+0xb4>
   42b3c:	d881030b 	ldhu	r2,1036(sp)
   42b40:	1080100c 	andi	r2,r2,64
   42b44:	10000326 	beq	r2,zero,42b54 <__sbprintf+0x98>
   42b48:	8080030b 	ldhu	r2,12(r16)
   42b4c:	10801014 	ori	r2,r2,64
   42b50:	8080030d 	sth	r2,12(r16)
   42b54:	8805883a 	mov	r2,r17
   42b58:	dfc11d17 	ldw	ra,1140(sp)
   42b5c:	dc811c17 	ldw	r18,1136(sp)
   42b60:	dc411b17 	ldw	r17,1132(sp)
   42b64:	dc011a17 	ldw	r16,1128(sp)
   42b68:	dec11e04 	addi	sp,sp,1144
   42b6c:	f800283a 	ret
   42b70:	047fffc4 	movi	r17,-1
   42b74:	003ff106 	br	42b3c <__alt_mem_onchip_memory2_1+0xfffc1b3c>

00042b78 <__swsetup_r>:
   42b78:	00800174 	movhi	r2,5
   42b7c:	defffd04 	addi	sp,sp,-12
   42b80:	1085ee04 	addi	r2,r2,6072
   42b84:	dc400115 	stw	r17,4(sp)
   42b88:	2023883a 	mov	r17,r4
   42b8c:	11000017 	ldw	r4,0(r2)
   42b90:	dc000015 	stw	r16,0(sp)
   42b94:	dfc00215 	stw	ra,8(sp)
   42b98:	2821883a 	mov	r16,r5
   42b9c:	20000226 	beq	r4,zero,42ba8 <__swsetup_r+0x30>
   42ba0:	20800e17 	ldw	r2,56(r4)
   42ba4:	10003126 	beq	r2,zero,42c6c <__swsetup_r+0xf4>
   42ba8:	8080030b 	ldhu	r2,12(r16)
   42bac:	10c0020c 	andi	r3,r2,8
   42bb0:	1009883a 	mov	r4,r2
   42bb4:	18000f26 	beq	r3,zero,42bf4 <__swsetup_r+0x7c>
   42bb8:	80c00417 	ldw	r3,16(r16)
   42bbc:	18001526 	beq	r3,zero,42c14 <__swsetup_r+0x9c>
   42bc0:	1100004c 	andi	r4,r2,1
   42bc4:	20001c1e 	bne	r4,zero,42c38 <__swsetup_r+0xc0>
   42bc8:	1080008c 	andi	r2,r2,2
   42bcc:	1000291e 	bne	r2,zero,42c74 <__swsetup_r+0xfc>
   42bd0:	80800517 	ldw	r2,20(r16)
   42bd4:	80800215 	stw	r2,8(r16)
   42bd8:	18001c26 	beq	r3,zero,42c4c <__swsetup_r+0xd4>
   42bdc:	0005883a 	mov	r2,zero
   42be0:	dfc00217 	ldw	ra,8(sp)
   42be4:	dc400117 	ldw	r17,4(sp)
   42be8:	dc000017 	ldw	r16,0(sp)
   42bec:	dec00304 	addi	sp,sp,12
   42bf0:	f800283a 	ret
   42bf4:	2080040c 	andi	r2,r4,16
   42bf8:	10002e26 	beq	r2,zero,42cb4 <__swsetup_r+0x13c>
   42bfc:	2080010c 	andi	r2,r4,4
   42c00:	10001e1e 	bne	r2,zero,42c7c <__swsetup_r+0x104>
   42c04:	80c00417 	ldw	r3,16(r16)
   42c08:	20800214 	ori	r2,r4,8
   42c0c:	8080030d 	sth	r2,12(r16)
   42c10:	183feb1e 	bne	r3,zero,42bc0 <__alt_mem_onchip_memory2_1+0xfffc1bc0>
   42c14:	1100a00c 	andi	r4,r2,640
   42c18:	01408004 	movi	r5,512
   42c1c:	217fe826 	beq	r4,r5,42bc0 <__alt_mem_onchip_memory2_1+0xfffc1bc0>
   42c20:	800b883a 	mov	r5,r16
   42c24:	8809883a 	mov	r4,r17
   42c28:	00456f00 	call	456f0 <__smakebuf_r>
   42c2c:	8080030b 	ldhu	r2,12(r16)
   42c30:	80c00417 	ldw	r3,16(r16)
   42c34:	003fe206 	br	42bc0 <__alt_mem_onchip_memory2_1+0xfffc1bc0>
   42c38:	80800517 	ldw	r2,20(r16)
   42c3c:	80000215 	stw	zero,8(r16)
   42c40:	0085c83a 	sub	r2,zero,r2
   42c44:	80800615 	stw	r2,24(r16)
   42c48:	183fe41e 	bne	r3,zero,42bdc <__alt_mem_onchip_memory2_1+0xfffc1bdc>
   42c4c:	80c0030b 	ldhu	r3,12(r16)
   42c50:	0005883a 	mov	r2,zero
   42c54:	1900200c 	andi	r4,r3,128
   42c58:	203fe126 	beq	r4,zero,42be0 <__alt_mem_onchip_memory2_1+0xfffc1be0>
   42c5c:	18c01014 	ori	r3,r3,64
   42c60:	80c0030d 	sth	r3,12(r16)
   42c64:	00bfffc4 	movi	r2,-1
   42c68:	003fdd06 	br	42be0 <__alt_mem_onchip_memory2_1+0xfffc1be0>
   42c6c:	0044b4c0 	call	44b4c <__sinit>
   42c70:	003fcd06 	br	42ba8 <__alt_mem_onchip_memory2_1+0xfffc1ba8>
   42c74:	0005883a 	mov	r2,zero
   42c78:	003fd606 	br	42bd4 <__alt_mem_onchip_memory2_1+0xfffc1bd4>
   42c7c:	81400c17 	ldw	r5,48(r16)
   42c80:	28000626 	beq	r5,zero,42c9c <__swsetup_r+0x124>
   42c84:	80801004 	addi	r2,r16,64
   42c88:	28800326 	beq	r5,r2,42c98 <__swsetup_r+0x120>
   42c8c:	8809883a 	mov	r4,r17
   42c90:	0044cc00 	call	44cc0 <_free_r>
   42c94:	8100030b 	ldhu	r4,12(r16)
   42c98:	80000c15 	stw	zero,48(r16)
   42c9c:	80c00417 	ldw	r3,16(r16)
   42ca0:	00bff6c4 	movi	r2,-37
   42ca4:	1108703a 	and	r4,r2,r4
   42ca8:	80000115 	stw	zero,4(r16)
   42cac:	80c00015 	stw	r3,0(r16)
   42cb0:	003fd506 	br	42c08 <__alt_mem_onchip_memory2_1+0xfffc1c08>
   42cb4:	00800244 	movi	r2,9
   42cb8:	88800015 	stw	r2,0(r17)
   42cbc:	20801014 	ori	r2,r4,64
   42cc0:	8080030d 	sth	r2,12(r16)
   42cc4:	00bfffc4 	movi	r2,-1
   42cc8:	003fc506 	br	42be0 <__alt_mem_onchip_memory2_1+0xfffc1be0>

00042ccc <quorem>:
   42ccc:	defff704 	addi	sp,sp,-36
   42cd0:	dc800215 	stw	r18,8(sp)
   42cd4:	20800417 	ldw	r2,16(r4)
   42cd8:	2c800417 	ldw	r18,16(r5)
   42cdc:	dfc00815 	stw	ra,32(sp)
   42ce0:	ddc00715 	stw	r23,28(sp)
   42ce4:	dd800615 	stw	r22,24(sp)
   42ce8:	dd400515 	stw	r21,20(sp)
   42cec:	dd000415 	stw	r20,16(sp)
   42cf0:	dcc00315 	stw	r19,12(sp)
   42cf4:	dc400115 	stw	r17,4(sp)
   42cf8:	dc000015 	stw	r16,0(sp)
   42cfc:	14807116 	blt	r2,r18,42ec4 <quorem+0x1f8>
   42d00:	94bfffc4 	addi	r18,r18,-1
   42d04:	94ad883a 	add	r22,r18,r18
   42d08:	b5ad883a 	add	r22,r22,r22
   42d0c:	2c400504 	addi	r17,r5,20
   42d10:	8da9883a 	add	r20,r17,r22
   42d14:	25400504 	addi	r21,r4,20
   42d18:	282f883a 	mov	r23,r5
   42d1c:	adad883a 	add	r22,r21,r22
   42d20:	a1400017 	ldw	r5,0(r20)
   42d24:	2021883a 	mov	r16,r4
   42d28:	b1000017 	ldw	r4,0(r22)
   42d2c:	29400044 	addi	r5,r5,1
   42d30:	004a8cc0 	call	4a8cc <__udivsi3>
   42d34:	1027883a 	mov	r19,r2
   42d38:	10002c26 	beq	r2,zero,42dec <quorem+0x120>
   42d3c:	a813883a 	mov	r9,r21
   42d40:	880b883a 	mov	r5,r17
   42d44:	0009883a 	mov	r4,zero
   42d48:	000d883a 	mov	r6,zero
   42d4c:	2a000017 	ldw	r8,0(r5)
   42d50:	49c00017 	ldw	r7,0(r9)
   42d54:	29400104 	addi	r5,r5,4
   42d58:	40bfffcc 	andi	r2,r8,65535
   42d5c:	14c5383a 	mul	r2,r2,r19
   42d60:	4010d43a 	srli	r8,r8,16
   42d64:	38ffffcc 	andi	r3,r7,65535
   42d68:	1105883a 	add	r2,r2,r4
   42d6c:	1008d43a 	srli	r4,r2,16
   42d70:	44d1383a 	mul	r8,r8,r19
   42d74:	198d883a 	add	r6,r3,r6
   42d78:	10ffffcc 	andi	r3,r2,65535
   42d7c:	30c7c83a 	sub	r3,r6,r3
   42d80:	380ed43a 	srli	r7,r7,16
   42d84:	4105883a 	add	r2,r8,r4
   42d88:	180dd43a 	srai	r6,r3,16
   42d8c:	113fffcc 	andi	r4,r2,65535
   42d90:	390fc83a 	sub	r7,r7,r4
   42d94:	398d883a 	add	r6,r7,r6
   42d98:	300e943a 	slli	r7,r6,16
   42d9c:	18ffffcc 	andi	r3,r3,65535
   42da0:	1008d43a 	srli	r4,r2,16
   42da4:	38ceb03a 	or	r7,r7,r3
   42da8:	49c00015 	stw	r7,0(r9)
   42dac:	300dd43a 	srai	r6,r6,16
   42db0:	4a400104 	addi	r9,r9,4
   42db4:	a17fe52e 	bgeu	r20,r5,42d4c <__alt_mem_onchip_memory2_1+0xfffc1d4c>
   42db8:	b0800017 	ldw	r2,0(r22)
   42dbc:	10000b1e 	bne	r2,zero,42dec <quorem+0x120>
   42dc0:	b0bfff04 	addi	r2,r22,-4
   42dc4:	a880082e 	bgeu	r21,r2,42de8 <quorem+0x11c>
   42dc8:	b0ffff17 	ldw	r3,-4(r22)
   42dcc:	18000326 	beq	r3,zero,42ddc <quorem+0x110>
   42dd0:	00000506 	br	42de8 <quorem+0x11c>
   42dd4:	10c00017 	ldw	r3,0(r2)
   42dd8:	1800031e 	bne	r3,zero,42de8 <quorem+0x11c>
   42ddc:	10bfff04 	addi	r2,r2,-4
   42de0:	94bfffc4 	addi	r18,r18,-1
   42de4:	a8bffb36 	bltu	r21,r2,42dd4 <__alt_mem_onchip_memory2_1+0xfffc1dd4>
   42de8:	84800415 	stw	r18,16(r16)
   42dec:	b80b883a 	mov	r5,r23
   42df0:	8009883a 	mov	r4,r16
   42df4:	0046e300 	call	46e30 <__mcmp>
   42df8:	10002616 	blt	r2,zero,42e94 <quorem+0x1c8>
   42dfc:	9cc00044 	addi	r19,r19,1
   42e00:	a805883a 	mov	r2,r21
   42e04:	000b883a 	mov	r5,zero
   42e08:	11000017 	ldw	r4,0(r2)
   42e0c:	89800017 	ldw	r6,0(r17)
   42e10:	10800104 	addi	r2,r2,4
   42e14:	20ffffcc 	andi	r3,r4,65535
   42e18:	194b883a 	add	r5,r3,r5
   42e1c:	30ffffcc 	andi	r3,r6,65535
   42e20:	28c7c83a 	sub	r3,r5,r3
   42e24:	300cd43a 	srli	r6,r6,16
   42e28:	2008d43a 	srli	r4,r4,16
   42e2c:	180bd43a 	srai	r5,r3,16
   42e30:	18ffffcc 	andi	r3,r3,65535
   42e34:	2189c83a 	sub	r4,r4,r6
   42e38:	2149883a 	add	r4,r4,r5
   42e3c:	200c943a 	slli	r6,r4,16
   42e40:	8c400104 	addi	r17,r17,4
   42e44:	200bd43a 	srai	r5,r4,16
   42e48:	30c6b03a 	or	r3,r6,r3
   42e4c:	10ffff15 	stw	r3,-4(r2)
   42e50:	a47fed2e 	bgeu	r20,r17,42e08 <__alt_mem_onchip_memory2_1+0xfffc1e08>
   42e54:	9485883a 	add	r2,r18,r18
   42e58:	1085883a 	add	r2,r2,r2
   42e5c:	a887883a 	add	r3,r21,r2
   42e60:	18800017 	ldw	r2,0(r3)
   42e64:	10000b1e 	bne	r2,zero,42e94 <quorem+0x1c8>
   42e68:	18bfff04 	addi	r2,r3,-4
   42e6c:	a880082e 	bgeu	r21,r2,42e90 <quorem+0x1c4>
   42e70:	18ffff17 	ldw	r3,-4(r3)
   42e74:	18000326 	beq	r3,zero,42e84 <quorem+0x1b8>
   42e78:	00000506 	br	42e90 <quorem+0x1c4>
   42e7c:	10c00017 	ldw	r3,0(r2)
   42e80:	1800031e 	bne	r3,zero,42e90 <quorem+0x1c4>
   42e84:	10bfff04 	addi	r2,r2,-4
   42e88:	94bfffc4 	addi	r18,r18,-1
   42e8c:	a8bffb36 	bltu	r21,r2,42e7c <__alt_mem_onchip_memory2_1+0xfffc1e7c>
   42e90:	84800415 	stw	r18,16(r16)
   42e94:	9805883a 	mov	r2,r19
   42e98:	dfc00817 	ldw	ra,32(sp)
   42e9c:	ddc00717 	ldw	r23,28(sp)
   42ea0:	dd800617 	ldw	r22,24(sp)
   42ea4:	dd400517 	ldw	r21,20(sp)
   42ea8:	dd000417 	ldw	r20,16(sp)
   42eac:	dcc00317 	ldw	r19,12(sp)
   42eb0:	dc800217 	ldw	r18,8(sp)
   42eb4:	dc400117 	ldw	r17,4(sp)
   42eb8:	dc000017 	ldw	r16,0(sp)
   42ebc:	dec00904 	addi	sp,sp,36
   42ec0:	f800283a 	ret
   42ec4:	0005883a 	mov	r2,zero
   42ec8:	003ff306 	br	42e98 <__alt_mem_onchip_memory2_1+0xfffc1e98>

00042ecc <_dtoa_r>:
   42ecc:	20801017 	ldw	r2,64(r4)
   42ed0:	deffde04 	addi	sp,sp,-136
   42ed4:	df002015 	stw	fp,128(sp)
   42ed8:	dcc01b15 	stw	r19,108(sp)
   42edc:	dc801a15 	stw	r18,104(sp)
   42ee0:	dc401915 	stw	r17,100(sp)
   42ee4:	dc001815 	stw	r16,96(sp)
   42ee8:	dfc02115 	stw	ra,132(sp)
   42eec:	ddc01f15 	stw	r23,124(sp)
   42ef0:	dd801e15 	stw	r22,120(sp)
   42ef4:	dd401d15 	stw	r21,116(sp)
   42ef8:	dd001c15 	stw	r20,112(sp)
   42efc:	d9c00315 	stw	r7,12(sp)
   42f00:	2039883a 	mov	fp,r4
   42f04:	3023883a 	mov	r17,r6
   42f08:	2825883a 	mov	r18,r5
   42f0c:	dc002417 	ldw	r16,144(sp)
   42f10:	3027883a 	mov	r19,r6
   42f14:	10000826 	beq	r2,zero,42f38 <_dtoa_r+0x6c>
   42f18:	21801117 	ldw	r6,68(r4)
   42f1c:	00c00044 	movi	r3,1
   42f20:	100b883a 	mov	r5,r2
   42f24:	1986983a 	sll	r3,r3,r6
   42f28:	11800115 	stw	r6,4(r2)
   42f2c:	10c00215 	stw	r3,8(r2)
   42f30:	00466100 	call	46610 <_Bfree>
   42f34:	e0001015 	stw	zero,64(fp)
   42f38:	88002e16 	blt	r17,zero,42ff4 <_dtoa_r+0x128>
   42f3c:	80000015 	stw	zero,0(r16)
   42f40:	889ffc2c 	andhi	r2,r17,32752
   42f44:	00dffc34 	movhi	r3,32752
   42f48:	10c01c26 	beq	r2,r3,42fbc <_dtoa_r+0xf0>
   42f4c:	000d883a 	mov	r6,zero
   42f50:	000f883a 	mov	r7,zero
   42f54:	9009883a 	mov	r4,r18
   42f58:	980b883a 	mov	r5,r19
   42f5c:	004bb1c0 	call	4bb1c <__eqdf2>
   42f60:	10002b1e 	bne	r2,zero,43010 <_dtoa_r+0x144>
   42f64:	d9c02317 	ldw	r7,140(sp)
   42f68:	00800044 	movi	r2,1
   42f6c:	38800015 	stw	r2,0(r7)
   42f70:	d8802517 	ldw	r2,148(sp)
   42f74:	10019e26 	beq	r2,zero,435f0 <_dtoa_r+0x724>
   42f78:	d8c02517 	ldw	r3,148(sp)
   42f7c:	00800174 	movhi	r2,5
   42f80:	10be9344 	addi	r2,r2,-1459
   42f84:	18800015 	stw	r2,0(r3)
   42f88:	10bfffc4 	addi	r2,r2,-1
   42f8c:	dfc02117 	ldw	ra,132(sp)
   42f90:	df002017 	ldw	fp,128(sp)
   42f94:	ddc01f17 	ldw	r23,124(sp)
   42f98:	dd801e17 	ldw	r22,120(sp)
   42f9c:	dd401d17 	ldw	r21,116(sp)
   42fa0:	dd001c17 	ldw	r20,112(sp)
   42fa4:	dcc01b17 	ldw	r19,108(sp)
   42fa8:	dc801a17 	ldw	r18,104(sp)
   42fac:	dc401917 	ldw	r17,100(sp)
   42fb0:	dc001817 	ldw	r16,96(sp)
   42fb4:	dec02204 	addi	sp,sp,136
   42fb8:	f800283a 	ret
   42fbc:	d8c02317 	ldw	r3,140(sp)
   42fc0:	0089c3c4 	movi	r2,9999
   42fc4:	18800015 	stw	r2,0(r3)
   42fc8:	90017726 	beq	r18,zero,435a8 <_dtoa_r+0x6dc>
   42fcc:	00800174 	movhi	r2,5
   42fd0:	10be9f04 	addi	r2,r2,-1412
   42fd4:	d9002517 	ldw	r4,148(sp)
   42fd8:	203fec26 	beq	r4,zero,42f8c <__alt_mem_onchip_memory2_1+0xfffc1f8c>
   42fdc:	10c000c7 	ldb	r3,3(r2)
   42fe0:	1801781e 	bne	r3,zero,435c4 <_dtoa_r+0x6f8>
   42fe4:	10c000c4 	addi	r3,r2,3
   42fe8:	d9802517 	ldw	r6,148(sp)
   42fec:	30c00015 	stw	r3,0(r6)
   42ff0:	003fe606 	br	42f8c <__alt_mem_onchip_memory2_1+0xfffc1f8c>
   42ff4:	04e00034 	movhi	r19,32768
   42ff8:	9cffffc4 	addi	r19,r19,-1
   42ffc:	00800044 	movi	r2,1
   43000:	8ce6703a 	and	r19,r17,r19
   43004:	80800015 	stw	r2,0(r16)
   43008:	9823883a 	mov	r17,r19
   4300c:	003fcc06 	br	42f40 <__alt_mem_onchip_memory2_1+0xfffc1f40>
   43010:	d8800204 	addi	r2,sp,8
   43014:	d8800015 	stw	r2,0(sp)
   43018:	d9c00104 	addi	r7,sp,4
   4301c:	900b883a 	mov	r5,r18
   43020:	980d883a 	mov	r6,r19
   43024:	e009883a 	mov	r4,fp
   43028:	8820d53a 	srli	r16,r17,20
   4302c:	00471fc0 	call	471fc <__d2b>
   43030:	d8800915 	stw	r2,36(sp)
   43034:	8001651e 	bne	r16,zero,435cc <_dtoa_r+0x700>
   43038:	dd800217 	ldw	r22,8(sp)
   4303c:	dc000117 	ldw	r16,4(sp)
   43040:	00800804 	movi	r2,32
   43044:	b421883a 	add	r16,r22,r16
   43048:	80c10c84 	addi	r3,r16,1074
   4304c:	10c2d10e 	bge	r2,r3,43b94 <_dtoa_r+0xcc8>
   43050:	00801004 	movi	r2,64
   43054:	81010484 	addi	r4,r16,1042
   43058:	10c7c83a 	sub	r3,r2,r3
   4305c:	9108d83a 	srl	r4,r18,r4
   43060:	88e2983a 	sll	r17,r17,r3
   43064:	2448b03a 	or	r4,r4,r17
   43068:	004cee40 	call	4cee4 <__floatunsidf>
   4306c:	017f8434 	movhi	r5,65040
   43070:	01800044 	movi	r6,1
   43074:	1009883a 	mov	r4,r2
   43078:	194b883a 	add	r5,r3,r5
   4307c:	843fffc4 	addi	r16,r16,-1
   43080:	d9801115 	stw	r6,68(sp)
   43084:	000d883a 	mov	r6,zero
   43088:	01cffe34 	movhi	r7,16376
   4308c:	004c48c0 	call	4c48c <__subdf3>
   43090:	0198dbf4 	movhi	r6,25455
   43094:	01cff4f4 	movhi	r7,16339
   43098:	3190d844 	addi	r6,r6,17249
   4309c:	39e1e9c4 	addi	r7,r7,-30809
   430a0:	1009883a 	mov	r4,r2
   430a4:	180b883a 	mov	r5,r3
   430a8:	004bd740 	call	4bd74 <__muldf3>
   430ac:	01a2d874 	movhi	r6,35681
   430b0:	01cff1f4 	movhi	r7,16327
   430b4:	31b22cc4 	addi	r6,r6,-14157
   430b8:	39e28a04 	addi	r7,r7,-30168
   430bc:	180b883a 	mov	r5,r3
   430c0:	1009883a 	mov	r4,r2
   430c4:	004a9880 	call	4a988 <__adddf3>
   430c8:	8009883a 	mov	r4,r16
   430cc:	1029883a 	mov	r20,r2
   430d0:	1823883a 	mov	r17,r3
   430d4:	004ce080 	call	4ce08 <__floatsidf>
   430d8:	019427f4 	movhi	r6,20639
   430dc:	01cff4f4 	movhi	r7,16339
   430e0:	319e7ec4 	addi	r6,r6,31227
   430e4:	39d104c4 	addi	r7,r7,17427
   430e8:	1009883a 	mov	r4,r2
   430ec:	180b883a 	mov	r5,r3
   430f0:	004bd740 	call	4bd74 <__muldf3>
   430f4:	100d883a 	mov	r6,r2
   430f8:	180f883a 	mov	r7,r3
   430fc:	a009883a 	mov	r4,r20
   43100:	880b883a 	mov	r5,r17
   43104:	004a9880 	call	4a988 <__adddf3>
   43108:	1009883a 	mov	r4,r2
   4310c:	180b883a 	mov	r5,r3
   43110:	1029883a 	mov	r20,r2
   43114:	1823883a 	mov	r17,r3
   43118:	004cd880 	call	4cd88 <__fixdfsi>
   4311c:	000d883a 	mov	r6,zero
   43120:	000f883a 	mov	r7,zero
   43124:	a009883a 	mov	r4,r20
   43128:	880b883a 	mov	r5,r17
   4312c:	d8800515 	stw	r2,20(sp)
   43130:	004bc800 	call	4bc80 <__ledf2>
   43134:	10028716 	blt	r2,zero,43b54 <_dtoa_r+0xc88>
   43138:	d8c00517 	ldw	r3,20(sp)
   4313c:	00800584 	movi	r2,22
   43140:	10c27536 	bltu	r2,r3,43b18 <_dtoa_r+0xc4c>
   43144:	180490fa 	slli	r2,r3,3
   43148:	00c00174 	movhi	r3,5
   4314c:	18febb04 	addi	r3,r3,-1300
   43150:	1885883a 	add	r2,r3,r2
   43154:	11000017 	ldw	r4,0(r2)
   43158:	11400117 	ldw	r5,4(r2)
   4315c:	900d883a 	mov	r6,r18
   43160:	980f883a 	mov	r7,r19
   43164:	004bba40 	call	4bba4 <__gedf2>
   43168:	00828d0e 	bge	zero,r2,43ba0 <_dtoa_r+0xcd4>
   4316c:	d9000517 	ldw	r4,20(sp)
   43170:	d8000e15 	stw	zero,56(sp)
   43174:	213fffc4 	addi	r4,r4,-1
   43178:	d9000515 	stw	r4,20(sp)
   4317c:	b42dc83a 	sub	r22,r22,r16
   43180:	b5bfffc4 	addi	r22,r22,-1
   43184:	b0026f16 	blt	r22,zero,43b44 <_dtoa_r+0xc78>
   43188:	d8000815 	stw	zero,32(sp)
   4318c:	d9c00517 	ldw	r7,20(sp)
   43190:	38026416 	blt	r7,zero,43b24 <_dtoa_r+0xc58>
   43194:	b1ed883a 	add	r22,r22,r7
   43198:	d9c00d15 	stw	r7,52(sp)
   4319c:	d8000a15 	stw	zero,40(sp)
   431a0:	d9800317 	ldw	r6,12(sp)
   431a4:	00800244 	movi	r2,9
   431a8:	11811436 	bltu	r2,r6,435fc <_dtoa_r+0x730>
   431ac:	00800144 	movi	r2,5
   431b0:	1184e10e 	bge	r2,r6,44538 <_dtoa_r+0x166c>
   431b4:	31bfff04 	addi	r6,r6,-4
   431b8:	d9800315 	stw	r6,12(sp)
   431bc:	0023883a 	mov	r17,zero
   431c0:	d9800317 	ldw	r6,12(sp)
   431c4:	008000c4 	movi	r2,3
   431c8:	30836726 	beq	r6,r2,43f68 <_dtoa_r+0x109c>
   431cc:	1183410e 	bge	r2,r6,43ed4 <_dtoa_r+0x1008>
   431d0:	d9c00317 	ldw	r7,12(sp)
   431d4:	00800104 	movi	r2,4
   431d8:	38827c26 	beq	r7,r2,43bcc <_dtoa_r+0xd00>
   431dc:	00800144 	movi	r2,5
   431e0:	3884c41e 	bne	r7,r2,444f4 <_dtoa_r+0x1628>
   431e4:	00800044 	movi	r2,1
   431e8:	d8800b15 	stw	r2,44(sp)
   431ec:	d8c00517 	ldw	r3,20(sp)
   431f0:	d9002217 	ldw	r4,136(sp)
   431f4:	1907883a 	add	r3,r3,r4
   431f8:	19800044 	addi	r6,r3,1
   431fc:	d8c00c15 	stw	r3,48(sp)
   43200:	d9800615 	stw	r6,24(sp)
   43204:	0183a40e 	bge	zero,r6,44098 <_dtoa_r+0x11cc>
   43208:	d9800617 	ldw	r6,24(sp)
   4320c:	3021883a 	mov	r16,r6
   43210:	e0001115 	stw	zero,68(fp)
   43214:	008005c4 	movi	r2,23
   43218:	1184c92e 	bgeu	r2,r6,44540 <_dtoa_r+0x1674>
   4321c:	00c00044 	movi	r3,1
   43220:	00800104 	movi	r2,4
   43224:	1085883a 	add	r2,r2,r2
   43228:	11000504 	addi	r4,r2,20
   4322c:	180b883a 	mov	r5,r3
   43230:	18c00044 	addi	r3,r3,1
   43234:	313ffb2e 	bgeu	r6,r4,43224 <__alt_mem_onchip_memory2_1+0xfffc2224>
   43238:	e1401115 	stw	r5,68(fp)
   4323c:	e009883a 	mov	r4,fp
   43240:	00465680 	call	46568 <_Balloc>
   43244:	d8800715 	stw	r2,28(sp)
   43248:	e0801015 	stw	r2,64(fp)
   4324c:	00800384 	movi	r2,14
   43250:	1400f736 	bltu	r2,r16,43630 <_dtoa_r+0x764>
   43254:	8800f626 	beq	r17,zero,43630 <_dtoa_r+0x764>
   43258:	d9c00517 	ldw	r7,20(sp)
   4325c:	01c39a0e 	bge	zero,r7,440c8 <_dtoa_r+0x11fc>
   43260:	388003cc 	andi	r2,r7,15
   43264:	100490fa 	slli	r2,r2,3
   43268:	382bd13a 	srai	r21,r7,4
   4326c:	00c00174 	movhi	r3,5
   43270:	18febb04 	addi	r3,r3,-1300
   43274:	1885883a 	add	r2,r3,r2
   43278:	a8c0040c 	andi	r3,r21,16
   4327c:	12400017 	ldw	r9,0(r2)
   43280:	12000117 	ldw	r8,4(r2)
   43284:	18037926 	beq	r3,zero,4406c <_dtoa_r+0x11a0>
   43288:	00800174 	movhi	r2,5
   4328c:	10beb104 	addi	r2,r2,-1340
   43290:	11800817 	ldw	r6,32(r2)
   43294:	11c00917 	ldw	r7,36(r2)
   43298:	9009883a 	mov	r4,r18
   4329c:	980b883a 	mov	r5,r19
   432a0:	da001715 	stw	r8,92(sp)
   432a4:	da401615 	stw	r9,88(sp)
   432a8:	004b2340 	call	4b234 <__divdf3>
   432ac:	da001717 	ldw	r8,92(sp)
   432b0:	da401617 	ldw	r9,88(sp)
   432b4:	ad4003cc 	andi	r21,r21,15
   432b8:	040000c4 	movi	r16,3
   432bc:	1023883a 	mov	r17,r2
   432c0:	1829883a 	mov	r20,r3
   432c4:	a8001126 	beq	r21,zero,4330c <_dtoa_r+0x440>
   432c8:	05c00174 	movhi	r23,5
   432cc:	bdfeb104 	addi	r23,r23,-1340
   432d0:	4805883a 	mov	r2,r9
   432d4:	4007883a 	mov	r3,r8
   432d8:	a980004c 	andi	r6,r21,1
   432dc:	1009883a 	mov	r4,r2
   432e0:	a82bd07a 	srai	r21,r21,1
   432e4:	180b883a 	mov	r5,r3
   432e8:	30000426 	beq	r6,zero,432fc <_dtoa_r+0x430>
   432ec:	b9800017 	ldw	r6,0(r23)
   432f0:	b9c00117 	ldw	r7,4(r23)
   432f4:	84000044 	addi	r16,r16,1
   432f8:	004bd740 	call	4bd74 <__muldf3>
   432fc:	bdc00204 	addi	r23,r23,8
   43300:	a83ff51e 	bne	r21,zero,432d8 <__alt_mem_onchip_memory2_1+0xfffc22d8>
   43304:	1013883a 	mov	r9,r2
   43308:	1811883a 	mov	r8,r3
   4330c:	480d883a 	mov	r6,r9
   43310:	400f883a 	mov	r7,r8
   43314:	8809883a 	mov	r4,r17
   43318:	a00b883a 	mov	r5,r20
   4331c:	004b2340 	call	4b234 <__divdf3>
   43320:	d8800f15 	stw	r2,60(sp)
   43324:	d8c01015 	stw	r3,64(sp)
   43328:	d8c00e17 	ldw	r3,56(sp)
   4332c:	18000626 	beq	r3,zero,43348 <_dtoa_r+0x47c>
   43330:	d9000f17 	ldw	r4,60(sp)
   43334:	d9401017 	ldw	r5,64(sp)
   43338:	000d883a 	mov	r6,zero
   4333c:	01cffc34 	movhi	r7,16368
   43340:	004bc800 	call	4bc80 <__ledf2>
   43344:	10040b16 	blt	r2,zero,44374 <_dtoa_r+0x14a8>
   43348:	8009883a 	mov	r4,r16
   4334c:	004ce080 	call	4ce08 <__floatsidf>
   43350:	d9800f17 	ldw	r6,60(sp)
   43354:	d9c01017 	ldw	r7,64(sp)
   43358:	1009883a 	mov	r4,r2
   4335c:	180b883a 	mov	r5,r3
   43360:	004bd740 	call	4bd74 <__muldf3>
   43364:	000d883a 	mov	r6,zero
   43368:	01d00734 	movhi	r7,16412
   4336c:	1009883a 	mov	r4,r2
   43370:	180b883a 	mov	r5,r3
   43374:	004a9880 	call	4a988 <__adddf3>
   43378:	1021883a 	mov	r16,r2
   4337c:	d8800617 	ldw	r2,24(sp)
   43380:	047f3034 	movhi	r17,64704
   43384:	1c63883a 	add	r17,r3,r17
   43388:	10031826 	beq	r2,zero,43fec <_dtoa_r+0x1120>
   4338c:	d8c00517 	ldw	r3,20(sp)
   43390:	db000617 	ldw	r12,24(sp)
   43394:	d8c01315 	stw	r3,76(sp)
   43398:	d9000b17 	ldw	r4,44(sp)
   4339c:	20038f26 	beq	r4,zero,441dc <_dtoa_r+0x1310>
   433a0:	60bfffc4 	addi	r2,r12,-1
   433a4:	100490fa 	slli	r2,r2,3
   433a8:	00c00174 	movhi	r3,5
   433ac:	18febb04 	addi	r3,r3,-1300
   433b0:	1885883a 	add	r2,r3,r2
   433b4:	11800017 	ldw	r6,0(r2)
   433b8:	11c00117 	ldw	r7,4(r2)
   433bc:	d8800717 	ldw	r2,28(sp)
   433c0:	0009883a 	mov	r4,zero
   433c4:	014ff834 	movhi	r5,16352
   433c8:	db001615 	stw	r12,88(sp)
   433cc:	15c00044 	addi	r23,r2,1
   433d0:	004b2340 	call	4b234 <__divdf3>
   433d4:	800d883a 	mov	r6,r16
   433d8:	880f883a 	mov	r7,r17
   433dc:	1009883a 	mov	r4,r2
   433e0:	180b883a 	mov	r5,r3
   433e4:	004c48c0 	call	4c48c <__subdf3>
   433e8:	d9401017 	ldw	r5,64(sp)
   433ec:	d9000f17 	ldw	r4,60(sp)
   433f0:	102b883a 	mov	r21,r2
   433f4:	d8c01215 	stw	r3,72(sp)
   433f8:	004cd880 	call	4cd88 <__fixdfsi>
   433fc:	1009883a 	mov	r4,r2
   43400:	1029883a 	mov	r20,r2
   43404:	004ce080 	call	4ce08 <__floatsidf>
   43408:	d9000f17 	ldw	r4,60(sp)
   4340c:	d9401017 	ldw	r5,64(sp)
   43410:	100d883a 	mov	r6,r2
   43414:	180f883a 	mov	r7,r3
   43418:	004c48c0 	call	4c48c <__subdf3>
   4341c:	1823883a 	mov	r17,r3
   43420:	d8c00717 	ldw	r3,28(sp)
   43424:	d9401217 	ldw	r5,72(sp)
   43428:	a2000c04 	addi	r8,r20,48
   4342c:	1021883a 	mov	r16,r2
   43430:	1a000005 	stb	r8,0(r3)
   43434:	800d883a 	mov	r6,r16
   43438:	880f883a 	mov	r7,r17
   4343c:	a809883a 	mov	r4,r21
   43440:	4029883a 	mov	r20,r8
   43444:	004bba40 	call	4bba4 <__gedf2>
   43448:	00841d16 	blt	zero,r2,444c0 <_dtoa_r+0x15f4>
   4344c:	800d883a 	mov	r6,r16
   43450:	880f883a 	mov	r7,r17
   43454:	0009883a 	mov	r4,zero
   43458:	014ffc34 	movhi	r5,16368
   4345c:	004c48c0 	call	4c48c <__subdf3>
   43460:	d9401217 	ldw	r5,72(sp)
   43464:	100d883a 	mov	r6,r2
   43468:	180f883a 	mov	r7,r3
   4346c:	a809883a 	mov	r4,r21
   43470:	004bba40 	call	4bba4 <__gedf2>
   43474:	db001617 	ldw	r12,88(sp)
   43478:	00840e16 	blt	zero,r2,444b4 <_dtoa_r+0x15e8>
   4347c:	00800044 	movi	r2,1
   43480:	13006b0e 	bge	r2,r12,43630 <_dtoa_r+0x764>
   43484:	d9000717 	ldw	r4,28(sp)
   43488:	dd800f15 	stw	r22,60(sp)
   4348c:	dcc01015 	stw	r19,64(sp)
   43490:	2319883a 	add	r12,r4,r12
   43494:	dcc01217 	ldw	r19,72(sp)
   43498:	602d883a 	mov	r22,r12
   4349c:	dc801215 	stw	r18,72(sp)
   434a0:	b825883a 	mov	r18,r23
   434a4:	00000906 	br	434cc <_dtoa_r+0x600>
   434a8:	004c48c0 	call	4c48c <__subdf3>
   434ac:	a80d883a 	mov	r6,r21
   434b0:	980f883a 	mov	r7,r19
   434b4:	1009883a 	mov	r4,r2
   434b8:	180b883a 	mov	r5,r3
   434bc:	004bc800 	call	4bc80 <__ledf2>
   434c0:	1003e816 	blt	r2,zero,44464 <_dtoa_r+0x1598>
   434c4:	b825883a 	mov	r18,r23
   434c8:	bd83e926 	beq	r23,r22,44470 <_dtoa_r+0x15a4>
   434cc:	a809883a 	mov	r4,r21
   434d0:	980b883a 	mov	r5,r19
   434d4:	000d883a 	mov	r6,zero
   434d8:	01d00934 	movhi	r7,16420
   434dc:	004bd740 	call	4bd74 <__muldf3>
   434e0:	000d883a 	mov	r6,zero
   434e4:	01d00934 	movhi	r7,16420
   434e8:	8009883a 	mov	r4,r16
   434ec:	880b883a 	mov	r5,r17
   434f0:	102b883a 	mov	r21,r2
   434f4:	1827883a 	mov	r19,r3
   434f8:	004bd740 	call	4bd74 <__muldf3>
   434fc:	180b883a 	mov	r5,r3
   43500:	1009883a 	mov	r4,r2
   43504:	1821883a 	mov	r16,r3
   43508:	1023883a 	mov	r17,r2
   4350c:	004cd880 	call	4cd88 <__fixdfsi>
   43510:	1009883a 	mov	r4,r2
   43514:	1029883a 	mov	r20,r2
   43518:	004ce080 	call	4ce08 <__floatsidf>
   4351c:	8809883a 	mov	r4,r17
   43520:	800b883a 	mov	r5,r16
   43524:	100d883a 	mov	r6,r2
   43528:	180f883a 	mov	r7,r3
   4352c:	004c48c0 	call	4c48c <__subdf3>
   43530:	a5000c04 	addi	r20,r20,48
   43534:	a80d883a 	mov	r6,r21
   43538:	980f883a 	mov	r7,r19
   4353c:	1009883a 	mov	r4,r2
   43540:	180b883a 	mov	r5,r3
   43544:	95000005 	stb	r20,0(r18)
   43548:	1021883a 	mov	r16,r2
   4354c:	1823883a 	mov	r17,r3
   43550:	004bc800 	call	4bc80 <__ledf2>
   43554:	bdc00044 	addi	r23,r23,1
   43558:	800d883a 	mov	r6,r16
   4355c:	880f883a 	mov	r7,r17
   43560:	0009883a 	mov	r4,zero
   43564:	014ffc34 	movhi	r5,16368
   43568:	103fcf0e 	bge	r2,zero,434a8 <__alt_mem_onchip_memory2_1+0xfffc24a8>
   4356c:	d8c01317 	ldw	r3,76(sp)
   43570:	d8c00515 	stw	r3,20(sp)
   43574:	d9400917 	ldw	r5,36(sp)
   43578:	e009883a 	mov	r4,fp
   4357c:	00466100 	call	46610 <_Bfree>
   43580:	d9000517 	ldw	r4,20(sp)
   43584:	d9802317 	ldw	r6,140(sp)
   43588:	d9c02517 	ldw	r7,148(sp)
   4358c:	b8000005 	stb	zero,0(r23)
   43590:	20800044 	addi	r2,r4,1
   43594:	30800015 	stw	r2,0(r6)
   43598:	3802aa26 	beq	r7,zero,44044 <_dtoa_r+0x1178>
   4359c:	3dc00015 	stw	r23,0(r7)
   435a0:	d8800717 	ldw	r2,28(sp)
   435a4:	003e7906 	br	42f8c <__alt_mem_onchip_memory2_1+0xfffc1f8c>
   435a8:	00800434 	movhi	r2,16
   435ac:	10bfffc4 	addi	r2,r2,-1
   435b0:	88a2703a 	and	r17,r17,r2
   435b4:	883e851e 	bne	r17,zero,42fcc <__alt_mem_onchip_memory2_1+0xfffc1fcc>
   435b8:	00800174 	movhi	r2,5
   435bc:	10be9c04 	addi	r2,r2,-1424
   435c0:	003e8406 	br	42fd4 <__alt_mem_onchip_memory2_1+0xfffc1fd4>
   435c4:	10c00204 	addi	r3,r2,8
   435c8:	003e8706 	br	42fe8 <__alt_mem_onchip_memory2_1+0xfffc1fe8>
   435cc:	01400434 	movhi	r5,16
   435d0:	297fffc4 	addi	r5,r5,-1
   435d4:	994a703a 	and	r5,r19,r5
   435d8:	9009883a 	mov	r4,r18
   435dc:	843f0044 	addi	r16,r16,-1023
   435e0:	294ffc34 	orhi	r5,r5,16368
   435e4:	dd800217 	ldw	r22,8(sp)
   435e8:	d8001115 	stw	zero,68(sp)
   435ec:	003ea506 	br	43084 <__alt_mem_onchip_memory2_1+0xfffc2084>
   435f0:	00800174 	movhi	r2,5
   435f4:	10be9304 	addi	r2,r2,-1460
   435f8:	003e6406 	br	42f8c <__alt_mem_onchip_memory2_1+0xfffc1f8c>
   435fc:	e0001115 	stw	zero,68(fp)
   43600:	000b883a 	mov	r5,zero
   43604:	e009883a 	mov	r4,fp
   43608:	00465680 	call	46568 <_Balloc>
   4360c:	01bfffc4 	movi	r6,-1
   43610:	01c00044 	movi	r7,1
   43614:	d8800715 	stw	r2,28(sp)
   43618:	d9800c15 	stw	r6,48(sp)
   4361c:	e0801015 	stw	r2,64(fp)
   43620:	d8000315 	stw	zero,12(sp)
   43624:	d9c00b15 	stw	r7,44(sp)
   43628:	d9800615 	stw	r6,24(sp)
   4362c:	d8002215 	stw	zero,136(sp)
   43630:	d8800117 	ldw	r2,4(sp)
   43634:	10008916 	blt	r2,zero,4385c <_dtoa_r+0x990>
   43638:	d9000517 	ldw	r4,20(sp)
   4363c:	00c00384 	movi	r3,14
   43640:	19008616 	blt	r3,r4,4385c <_dtoa_r+0x990>
   43644:	200490fa 	slli	r2,r4,3
   43648:	00c00174 	movhi	r3,5
   4364c:	d9802217 	ldw	r6,136(sp)
   43650:	18febb04 	addi	r3,r3,-1300
   43654:	1885883a 	add	r2,r3,r2
   43658:	14000017 	ldw	r16,0(r2)
   4365c:	14400117 	ldw	r17,4(r2)
   43660:	30016316 	blt	r6,zero,43bf0 <_dtoa_r+0xd24>
   43664:	800d883a 	mov	r6,r16
   43668:	880f883a 	mov	r7,r17
   4366c:	9009883a 	mov	r4,r18
   43670:	980b883a 	mov	r5,r19
   43674:	004b2340 	call	4b234 <__divdf3>
   43678:	180b883a 	mov	r5,r3
   4367c:	1009883a 	mov	r4,r2
   43680:	004cd880 	call	4cd88 <__fixdfsi>
   43684:	1009883a 	mov	r4,r2
   43688:	102b883a 	mov	r21,r2
   4368c:	004ce080 	call	4ce08 <__floatsidf>
   43690:	800d883a 	mov	r6,r16
   43694:	880f883a 	mov	r7,r17
   43698:	1009883a 	mov	r4,r2
   4369c:	180b883a 	mov	r5,r3
   436a0:	004bd740 	call	4bd74 <__muldf3>
   436a4:	100d883a 	mov	r6,r2
   436a8:	180f883a 	mov	r7,r3
   436ac:	9009883a 	mov	r4,r18
   436b0:	980b883a 	mov	r5,r19
   436b4:	004c48c0 	call	4c48c <__subdf3>
   436b8:	d9c00717 	ldw	r7,28(sp)
   436bc:	1009883a 	mov	r4,r2
   436c0:	a8800c04 	addi	r2,r21,48
   436c4:	38800005 	stb	r2,0(r7)
   436c8:	3dc00044 	addi	r23,r7,1
   436cc:	d9c00617 	ldw	r7,24(sp)
   436d0:	01800044 	movi	r6,1
   436d4:	180b883a 	mov	r5,r3
   436d8:	2005883a 	mov	r2,r4
   436dc:	39803826 	beq	r7,r6,437c0 <_dtoa_r+0x8f4>
   436e0:	000d883a 	mov	r6,zero
   436e4:	01d00934 	movhi	r7,16420
   436e8:	004bd740 	call	4bd74 <__muldf3>
   436ec:	000d883a 	mov	r6,zero
   436f0:	000f883a 	mov	r7,zero
   436f4:	1009883a 	mov	r4,r2
   436f8:	180b883a 	mov	r5,r3
   436fc:	1025883a 	mov	r18,r2
   43700:	1827883a 	mov	r19,r3
   43704:	004bb1c0 	call	4bb1c <__eqdf2>
   43708:	103f9a26 	beq	r2,zero,43574 <__alt_mem_onchip_memory2_1+0xfffc2574>
   4370c:	d9c00617 	ldw	r7,24(sp)
   43710:	d8c00717 	ldw	r3,28(sp)
   43714:	b829883a 	mov	r20,r23
   43718:	38bfffc4 	addi	r2,r7,-1
   4371c:	18ad883a 	add	r22,r3,r2
   43720:	00000a06 	br	4374c <_dtoa_r+0x880>
   43724:	004bd740 	call	4bd74 <__muldf3>
   43728:	000d883a 	mov	r6,zero
   4372c:	000f883a 	mov	r7,zero
   43730:	1009883a 	mov	r4,r2
   43734:	180b883a 	mov	r5,r3
   43738:	1025883a 	mov	r18,r2
   4373c:	1827883a 	mov	r19,r3
   43740:	b829883a 	mov	r20,r23
   43744:	004bb1c0 	call	4bb1c <__eqdf2>
   43748:	103f8a26 	beq	r2,zero,43574 <__alt_mem_onchip_memory2_1+0xfffc2574>
   4374c:	800d883a 	mov	r6,r16
   43750:	880f883a 	mov	r7,r17
   43754:	9009883a 	mov	r4,r18
   43758:	980b883a 	mov	r5,r19
   4375c:	004b2340 	call	4b234 <__divdf3>
   43760:	180b883a 	mov	r5,r3
   43764:	1009883a 	mov	r4,r2
   43768:	004cd880 	call	4cd88 <__fixdfsi>
   4376c:	1009883a 	mov	r4,r2
   43770:	102b883a 	mov	r21,r2
   43774:	004ce080 	call	4ce08 <__floatsidf>
   43778:	800d883a 	mov	r6,r16
   4377c:	880f883a 	mov	r7,r17
   43780:	1009883a 	mov	r4,r2
   43784:	180b883a 	mov	r5,r3
   43788:	004bd740 	call	4bd74 <__muldf3>
   4378c:	100d883a 	mov	r6,r2
   43790:	180f883a 	mov	r7,r3
   43794:	9009883a 	mov	r4,r18
   43798:	980b883a 	mov	r5,r19
   4379c:	004c48c0 	call	4c48c <__subdf3>
   437a0:	aa000c04 	addi	r8,r21,48
   437a4:	a2000005 	stb	r8,0(r20)
   437a8:	000d883a 	mov	r6,zero
   437ac:	01d00934 	movhi	r7,16420
   437b0:	1009883a 	mov	r4,r2
   437b4:	180b883a 	mov	r5,r3
   437b8:	a5c00044 	addi	r23,r20,1
   437bc:	b53fd91e 	bne	r22,r20,43724 <__alt_mem_onchip_memory2_1+0xfffc2724>
   437c0:	100d883a 	mov	r6,r2
   437c4:	180f883a 	mov	r7,r3
   437c8:	1009883a 	mov	r4,r2
   437cc:	180b883a 	mov	r5,r3
   437d0:	004a9880 	call	4a988 <__adddf3>
   437d4:	100d883a 	mov	r6,r2
   437d8:	180f883a 	mov	r7,r3
   437dc:	8009883a 	mov	r4,r16
   437e0:	880b883a 	mov	r5,r17
   437e4:	1027883a 	mov	r19,r2
   437e8:	1825883a 	mov	r18,r3
   437ec:	004bc800 	call	4bc80 <__ledf2>
   437f0:	10000816 	blt	r2,zero,43814 <_dtoa_r+0x948>
   437f4:	980d883a 	mov	r6,r19
   437f8:	900f883a 	mov	r7,r18
   437fc:	8009883a 	mov	r4,r16
   43800:	880b883a 	mov	r5,r17
   43804:	004bb1c0 	call	4bb1c <__eqdf2>
   43808:	103f5a1e 	bne	r2,zero,43574 <__alt_mem_onchip_memory2_1+0xfffc2574>
   4380c:	ad40004c 	andi	r21,r21,1
   43810:	a83f5826 	beq	r21,zero,43574 <__alt_mem_onchip_memory2_1+0xfffc2574>
   43814:	bd3fffc3 	ldbu	r20,-1(r23)
   43818:	b8bfffc4 	addi	r2,r23,-1
   4381c:	1007883a 	mov	r3,r2
   43820:	01400e44 	movi	r5,57
   43824:	d9800717 	ldw	r6,28(sp)
   43828:	00000506 	br	43840 <_dtoa_r+0x974>
   4382c:	18ffffc4 	addi	r3,r3,-1
   43830:	11824726 	beq	r2,r6,44150 <_dtoa_r+0x1284>
   43834:	1d000003 	ldbu	r20,0(r3)
   43838:	102f883a 	mov	r23,r2
   4383c:	10bfffc4 	addi	r2,r2,-1
   43840:	a1003fcc 	andi	r4,r20,255
   43844:	2100201c 	xori	r4,r4,128
   43848:	213fe004 	addi	r4,r4,-128
   4384c:	217ff726 	beq	r4,r5,4382c <__alt_mem_onchip_memory2_1+0xfffc282c>
   43850:	a2000044 	addi	r8,r20,1
   43854:	12000005 	stb	r8,0(r2)
   43858:	003f4606 	br	43574 <__alt_mem_onchip_memory2_1+0xfffc2574>
   4385c:	d9000b17 	ldw	r4,44(sp)
   43860:	2000c826 	beq	r4,zero,43b84 <_dtoa_r+0xcb8>
   43864:	d9800317 	ldw	r6,12(sp)
   43868:	00c00044 	movi	r3,1
   4386c:	1980f90e 	bge	r3,r6,43c54 <_dtoa_r+0xd88>
   43870:	d8800617 	ldw	r2,24(sp)
   43874:	d8c00a17 	ldw	r3,40(sp)
   43878:	157fffc4 	addi	r21,r2,-1
   4387c:	1d41f316 	blt	r3,r21,4404c <_dtoa_r+0x1180>
   43880:	1d6bc83a 	sub	r21,r3,r21
   43884:	d9c00617 	ldw	r7,24(sp)
   43888:	3802aa16 	blt	r7,zero,44334 <_dtoa_r+0x1468>
   4388c:	dd000817 	ldw	r20,32(sp)
   43890:	d8800617 	ldw	r2,24(sp)
   43894:	d8c00817 	ldw	r3,32(sp)
   43898:	01400044 	movi	r5,1
   4389c:	e009883a 	mov	r4,fp
   438a0:	1887883a 	add	r3,r3,r2
   438a4:	d8c00815 	stw	r3,32(sp)
   438a8:	b0ad883a 	add	r22,r22,r2
   438ac:	00469740 	call	46974 <__i2b>
   438b0:	1023883a 	mov	r17,r2
   438b4:	a0000826 	beq	r20,zero,438d8 <_dtoa_r+0xa0c>
   438b8:	0580070e 	bge	zero,r22,438d8 <_dtoa_r+0xa0c>
   438bc:	a005883a 	mov	r2,r20
   438c0:	b500b916 	blt	r22,r20,43ba8 <_dtoa_r+0xcdc>
   438c4:	d9000817 	ldw	r4,32(sp)
   438c8:	a0a9c83a 	sub	r20,r20,r2
   438cc:	b0adc83a 	sub	r22,r22,r2
   438d0:	2089c83a 	sub	r4,r4,r2
   438d4:	d9000815 	stw	r4,32(sp)
   438d8:	d9800a17 	ldw	r6,40(sp)
   438dc:	0181810e 	bge	zero,r6,43ee4 <_dtoa_r+0x1018>
   438e0:	d9c00b17 	ldw	r7,44(sp)
   438e4:	3800b326 	beq	r7,zero,43bb4 <_dtoa_r+0xce8>
   438e8:	a800b226 	beq	r21,zero,43bb4 <_dtoa_r+0xce8>
   438ec:	880b883a 	mov	r5,r17
   438f0:	a80d883a 	mov	r6,r21
   438f4:	e009883a 	mov	r4,fp
   438f8:	0046ba80 	call	46ba8 <__pow5mult>
   438fc:	d9800917 	ldw	r6,36(sp)
   43900:	100b883a 	mov	r5,r2
   43904:	e009883a 	mov	r4,fp
   43908:	1023883a 	mov	r17,r2
   4390c:	00469b00 	call	469b0 <__multiply>
   43910:	1021883a 	mov	r16,r2
   43914:	d8800a17 	ldw	r2,40(sp)
   43918:	d9400917 	ldw	r5,36(sp)
   4391c:	e009883a 	mov	r4,fp
   43920:	1545c83a 	sub	r2,r2,r21
   43924:	d8800a15 	stw	r2,40(sp)
   43928:	00466100 	call	46610 <_Bfree>
   4392c:	d8c00a17 	ldw	r3,40(sp)
   43930:	18009f1e 	bne	r3,zero,43bb0 <_dtoa_r+0xce4>
   43934:	05c00044 	movi	r23,1
   43938:	e009883a 	mov	r4,fp
   4393c:	b80b883a 	mov	r5,r23
   43940:	00469740 	call	46974 <__i2b>
   43944:	d9000d17 	ldw	r4,52(sp)
   43948:	102b883a 	mov	r21,r2
   4394c:	2000ce26 	beq	r4,zero,43c88 <_dtoa_r+0xdbc>
   43950:	200d883a 	mov	r6,r4
   43954:	100b883a 	mov	r5,r2
   43958:	e009883a 	mov	r4,fp
   4395c:	0046ba80 	call	46ba8 <__pow5mult>
   43960:	d9800317 	ldw	r6,12(sp)
   43964:	102b883a 	mov	r21,r2
   43968:	b981810e 	bge	r23,r6,43f70 <_dtoa_r+0x10a4>
   4396c:	0027883a 	mov	r19,zero
   43970:	a8800417 	ldw	r2,16(r21)
   43974:	05c00804 	movi	r23,32
   43978:	10800104 	addi	r2,r2,4
   4397c:	1085883a 	add	r2,r2,r2
   43980:	1085883a 	add	r2,r2,r2
   43984:	a885883a 	add	r2,r21,r2
   43988:	11000017 	ldw	r4,0(r2)
   4398c:	004685c0 	call	4685c <__hi0bits>
   43990:	b885c83a 	sub	r2,r23,r2
   43994:	1585883a 	add	r2,r2,r22
   43998:	108007cc 	andi	r2,r2,31
   4399c:	1000b326 	beq	r2,zero,43c6c <_dtoa_r+0xda0>
   439a0:	00c00804 	movi	r3,32
   439a4:	1887c83a 	sub	r3,r3,r2
   439a8:	01000104 	movi	r4,4
   439ac:	20c2cd0e 	bge	r4,r3,444e4 <_dtoa_r+0x1618>
   439b0:	00c00704 	movi	r3,28
   439b4:	1885c83a 	sub	r2,r3,r2
   439b8:	d8c00817 	ldw	r3,32(sp)
   439bc:	a0a9883a 	add	r20,r20,r2
   439c0:	b0ad883a 	add	r22,r22,r2
   439c4:	1887883a 	add	r3,r3,r2
   439c8:	d8c00815 	stw	r3,32(sp)
   439cc:	d9800817 	ldw	r6,32(sp)
   439d0:	0180040e 	bge	zero,r6,439e4 <_dtoa_r+0xb18>
   439d4:	800b883a 	mov	r5,r16
   439d8:	e009883a 	mov	r4,fp
   439dc:	0046ce80 	call	46ce8 <__lshift>
   439e0:	1021883a 	mov	r16,r2
   439e4:	0580050e 	bge	zero,r22,439fc <_dtoa_r+0xb30>
   439e8:	a80b883a 	mov	r5,r21
   439ec:	b00d883a 	mov	r6,r22
   439f0:	e009883a 	mov	r4,fp
   439f4:	0046ce80 	call	46ce8 <__lshift>
   439f8:	102b883a 	mov	r21,r2
   439fc:	d9c00e17 	ldw	r7,56(sp)
   43a00:	3801211e 	bne	r7,zero,43e88 <_dtoa_r+0xfbc>
   43a04:	d9800617 	ldw	r6,24(sp)
   43a08:	0181380e 	bge	zero,r6,43eec <_dtoa_r+0x1020>
   43a0c:	d8c00b17 	ldw	r3,44(sp)
   43a10:	1800ab1e 	bne	r3,zero,43cc0 <_dtoa_r+0xdf4>
   43a14:	dc800717 	ldw	r18,28(sp)
   43a18:	dcc00617 	ldw	r19,24(sp)
   43a1c:	9029883a 	mov	r20,r18
   43a20:	00000206 	br	43a2c <_dtoa_r+0xb60>
   43a24:	00466380 	call	46638 <__multadd>
   43a28:	1021883a 	mov	r16,r2
   43a2c:	a80b883a 	mov	r5,r21
   43a30:	8009883a 	mov	r4,r16
   43a34:	0042ccc0 	call	42ccc <quorem>
   43a38:	10800c04 	addi	r2,r2,48
   43a3c:	90800005 	stb	r2,0(r18)
   43a40:	94800044 	addi	r18,r18,1
   43a44:	9507c83a 	sub	r3,r18,r20
   43a48:	000f883a 	mov	r7,zero
   43a4c:	01800284 	movi	r6,10
   43a50:	800b883a 	mov	r5,r16
   43a54:	e009883a 	mov	r4,fp
   43a58:	1cfff216 	blt	r3,r19,43a24 <__alt_mem_onchip_memory2_1+0xfffc2a24>
   43a5c:	1011883a 	mov	r8,r2
   43a60:	d8800617 	ldw	r2,24(sp)
   43a64:	0082370e 	bge	zero,r2,44344 <_dtoa_r+0x1478>
   43a68:	d9000717 	ldw	r4,28(sp)
   43a6c:	0025883a 	mov	r18,zero
   43a70:	20af883a 	add	r23,r4,r2
   43a74:	01800044 	movi	r6,1
   43a78:	800b883a 	mov	r5,r16
   43a7c:	e009883a 	mov	r4,fp
   43a80:	da001715 	stw	r8,92(sp)
   43a84:	0046ce80 	call	46ce8 <__lshift>
   43a88:	a80b883a 	mov	r5,r21
   43a8c:	1009883a 	mov	r4,r2
   43a90:	d8800915 	stw	r2,36(sp)
   43a94:	0046e300 	call	46e30 <__mcmp>
   43a98:	da001717 	ldw	r8,92(sp)
   43a9c:	0081800e 	bge	zero,r2,440a0 <_dtoa_r+0x11d4>
   43aa0:	b93fffc3 	ldbu	r4,-1(r23)
   43aa4:	b8bfffc4 	addi	r2,r23,-1
   43aa8:	1007883a 	mov	r3,r2
   43aac:	01800e44 	movi	r6,57
   43ab0:	d9c00717 	ldw	r7,28(sp)
   43ab4:	00000506 	br	43acc <_dtoa_r+0xc00>
   43ab8:	18ffffc4 	addi	r3,r3,-1
   43abc:	11c12326 	beq	r2,r7,43f4c <_dtoa_r+0x1080>
   43ac0:	19000003 	ldbu	r4,0(r3)
   43ac4:	102f883a 	mov	r23,r2
   43ac8:	10bfffc4 	addi	r2,r2,-1
   43acc:	21403fcc 	andi	r5,r4,255
   43ad0:	2940201c 	xori	r5,r5,128
   43ad4:	297fe004 	addi	r5,r5,-128
   43ad8:	29bff726 	beq	r5,r6,43ab8 <__alt_mem_onchip_memory2_1+0xfffc2ab8>
   43adc:	21000044 	addi	r4,r4,1
   43ae0:	11000005 	stb	r4,0(r2)
   43ae4:	a80b883a 	mov	r5,r21
   43ae8:	e009883a 	mov	r4,fp
   43aec:	00466100 	call	46610 <_Bfree>
   43af0:	883ea026 	beq	r17,zero,43574 <__alt_mem_onchip_memory2_1+0xfffc2574>
   43af4:	90000426 	beq	r18,zero,43b08 <_dtoa_r+0xc3c>
   43af8:	94400326 	beq	r18,r17,43b08 <_dtoa_r+0xc3c>
   43afc:	900b883a 	mov	r5,r18
   43b00:	e009883a 	mov	r4,fp
   43b04:	00466100 	call	46610 <_Bfree>
   43b08:	880b883a 	mov	r5,r17
   43b0c:	e009883a 	mov	r4,fp
   43b10:	00466100 	call	46610 <_Bfree>
   43b14:	003e9706 	br	43574 <__alt_mem_onchip_memory2_1+0xfffc2574>
   43b18:	01800044 	movi	r6,1
   43b1c:	d9800e15 	stw	r6,56(sp)
   43b20:	003d9606 	br	4317c <__alt_mem_onchip_memory2_1+0xfffc217c>
   43b24:	d8800817 	ldw	r2,32(sp)
   43b28:	d8c00517 	ldw	r3,20(sp)
   43b2c:	d8000d15 	stw	zero,52(sp)
   43b30:	10c5c83a 	sub	r2,r2,r3
   43b34:	00c9c83a 	sub	r4,zero,r3
   43b38:	d8800815 	stw	r2,32(sp)
   43b3c:	d9000a15 	stw	r4,40(sp)
   43b40:	003d9706 	br	431a0 <__alt_mem_onchip_memory2_1+0xfffc21a0>
   43b44:	05adc83a 	sub	r22,zero,r22
   43b48:	dd800815 	stw	r22,32(sp)
   43b4c:	002d883a 	mov	r22,zero
   43b50:	003d8e06 	br	4318c <__alt_mem_onchip_memory2_1+0xfffc218c>
   43b54:	d9000517 	ldw	r4,20(sp)
   43b58:	004ce080 	call	4ce08 <__floatsidf>
   43b5c:	100d883a 	mov	r6,r2
   43b60:	180f883a 	mov	r7,r3
   43b64:	a009883a 	mov	r4,r20
   43b68:	880b883a 	mov	r5,r17
   43b6c:	004bb1c0 	call	4bb1c <__eqdf2>
   43b70:	103d7126 	beq	r2,zero,43138 <__alt_mem_onchip_memory2_1+0xfffc2138>
   43b74:	d9c00517 	ldw	r7,20(sp)
   43b78:	39ffffc4 	addi	r7,r7,-1
   43b7c:	d9c00515 	stw	r7,20(sp)
   43b80:	003d6d06 	br	43138 <__alt_mem_onchip_memory2_1+0xfffc2138>
   43b84:	dd400a17 	ldw	r21,40(sp)
   43b88:	dd000817 	ldw	r20,32(sp)
   43b8c:	0023883a 	mov	r17,zero
   43b90:	003f4806 	br	438b4 <__alt_mem_onchip_memory2_1+0xfffc28b4>
   43b94:	10e3c83a 	sub	r17,r2,r3
   43b98:	9448983a 	sll	r4,r18,r17
   43b9c:	003d3206 	br	43068 <__alt_mem_onchip_memory2_1+0xfffc2068>
   43ba0:	d8000e15 	stw	zero,56(sp)
   43ba4:	003d7506 	br	4317c <__alt_mem_onchip_memory2_1+0xfffc217c>
   43ba8:	b005883a 	mov	r2,r22
   43bac:	003f4506 	br	438c4 <__alt_mem_onchip_memory2_1+0xfffc28c4>
   43bb0:	dc000915 	stw	r16,36(sp)
   43bb4:	d9800a17 	ldw	r6,40(sp)
   43bb8:	d9400917 	ldw	r5,36(sp)
   43bbc:	e009883a 	mov	r4,fp
   43bc0:	0046ba80 	call	46ba8 <__pow5mult>
   43bc4:	1021883a 	mov	r16,r2
   43bc8:	003f5a06 	br	43934 <__alt_mem_onchip_memory2_1+0xfffc2934>
   43bcc:	01c00044 	movi	r7,1
   43bd0:	d9c00b15 	stw	r7,44(sp)
   43bd4:	d8802217 	ldw	r2,136(sp)
   43bd8:	0081280e 	bge	zero,r2,4407c <_dtoa_r+0x11b0>
   43bdc:	100d883a 	mov	r6,r2
   43be0:	1021883a 	mov	r16,r2
   43be4:	d8800c15 	stw	r2,48(sp)
   43be8:	d8800615 	stw	r2,24(sp)
   43bec:	003d8806 	br	43210 <__alt_mem_onchip_memory2_1+0xfffc2210>
   43bf0:	d8800617 	ldw	r2,24(sp)
   43bf4:	00be9b16 	blt	zero,r2,43664 <__alt_mem_onchip_memory2_1+0xfffc2664>
   43bf8:	10010f1e 	bne	r2,zero,44038 <_dtoa_r+0x116c>
   43bfc:	880b883a 	mov	r5,r17
   43c00:	000d883a 	mov	r6,zero
   43c04:	01d00534 	movhi	r7,16404
   43c08:	8009883a 	mov	r4,r16
   43c0c:	004bd740 	call	4bd74 <__muldf3>
   43c10:	900d883a 	mov	r6,r18
   43c14:	980f883a 	mov	r7,r19
   43c18:	1009883a 	mov	r4,r2
   43c1c:	180b883a 	mov	r5,r3
   43c20:	004bba40 	call	4bba4 <__gedf2>
   43c24:	002b883a 	mov	r21,zero
   43c28:	0023883a 	mov	r17,zero
   43c2c:	1000bf16 	blt	r2,zero,43f2c <_dtoa_r+0x1060>
   43c30:	d9802217 	ldw	r6,136(sp)
   43c34:	ddc00717 	ldw	r23,28(sp)
   43c38:	018c303a 	nor	r6,zero,r6
   43c3c:	d9800515 	stw	r6,20(sp)
   43c40:	a80b883a 	mov	r5,r21
   43c44:	e009883a 	mov	r4,fp
   43c48:	00466100 	call	46610 <_Bfree>
   43c4c:	883e4926 	beq	r17,zero,43574 <__alt_mem_onchip_memory2_1+0xfffc2574>
   43c50:	003fad06 	br	43b08 <__alt_mem_onchip_memory2_1+0xfffc2b08>
   43c54:	d9c01117 	ldw	r7,68(sp)
   43c58:	3801bc26 	beq	r7,zero,4434c <_dtoa_r+0x1480>
   43c5c:	10810cc4 	addi	r2,r2,1075
   43c60:	dd400a17 	ldw	r21,40(sp)
   43c64:	dd000817 	ldw	r20,32(sp)
   43c68:	003f0a06 	br	43894 <__alt_mem_onchip_memory2_1+0xfffc2894>
   43c6c:	00800704 	movi	r2,28
   43c70:	d9000817 	ldw	r4,32(sp)
   43c74:	a0a9883a 	add	r20,r20,r2
   43c78:	b0ad883a 	add	r22,r22,r2
   43c7c:	2089883a 	add	r4,r4,r2
   43c80:	d9000815 	stw	r4,32(sp)
   43c84:	003f5106 	br	439cc <__alt_mem_onchip_memory2_1+0xfffc29cc>
   43c88:	d8c00317 	ldw	r3,12(sp)
   43c8c:	b8c1fc0e 	bge	r23,r3,44480 <_dtoa_r+0x15b4>
   43c90:	0027883a 	mov	r19,zero
   43c94:	b805883a 	mov	r2,r23
   43c98:	003f3e06 	br	43994 <__alt_mem_onchip_memory2_1+0xfffc2994>
   43c9c:	880b883a 	mov	r5,r17
   43ca0:	e009883a 	mov	r4,fp
   43ca4:	000f883a 	mov	r7,zero
   43ca8:	01800284 	movi	r6,10
   43cac:	00466380 	call	46638 <__multadd>
   43cb0:	d9000c17 	ldw	r4,48(sp)
   43cb4:	1023883a 	mov	r17,r2
   43cb8:	0102040e 	bge	zero,r4,444cc <_dtoa_r+0x1600>
   43cbc:	d9000615 	stw	r4,24(sp)
   43cc0:	0500050e 	bge	zero,r20,43cd8 <_dtoa_r+0xe0c>
   43cc4:	880b883a 	mov	r5,r17
   43cc8:	a00d883a 	mov	r6,r20
   43ccc:	e009883a 	mov	r4,fp
   43cd0:	0046ce80 	call	46ce8 <__lshift>
   43cd4:	1023883a 	mov	r17,r2
   43cd8:	9801241e 	bne	r19,zero,4416c <_dtoa_r+0x12a0>
   43cdc:	8829883a 	mov	r20,r17
   43ce0:	d9000617 	ldw	r4,24(sp)
   43ce4:	dcc00717 	ldw	r19,28(sp)
   43ce8:	9480004c 	andi	r18,r18,1
   43cec:	20bfffc4 	addi	r2,r4,-1
   43cf0:	9885883a 	add	r2,r19,r2
   43cf4:	d8800415 	stw	r2,16(sp)
   43cf8:	dc800615 	stw	r18,24(sp)
   43cfc:	a80b883a 	mov	r5,r21
   43d00:	8009883a 	mov	r4,r16
   43d04:	0042ccc0 	call	42ccc <quorem>
   43d08:	880b883a 	mov	r5,r17
   43d0c:	8009883a 	mov	r4,r16
   43d10:	102f883a 	mov	r23,r2
   43d14:	0046e300 	call	46e30 <__mcmp>
   43d18:	a80b883a 	mov	r5,r21
   43d1c:	a00d883a 	mov	r6,r20
   43d20:	e009883a 	mov	r4,fp
   43d24:	102d883a 	mov	r22,r2
   43d28:	0046e900 	call	46e90 <__mdiff>
   43d2c:	1007883a 	mov	r3,r2
   43d30:	10800317 	ldw	r2,12(r2)
   43d34:	bc800c04 	addi	r18,r23,48
   43d38:	180b883a 	mov	r5,r3
   43d3c:	10004e1e 	bne	r2,zero,43e78 <_dtoa_r+0xfac>
   43d40:	8009883a 	mov	r4,r16
   43d44:	d8c01615 	stw	r3,88(sp)
   43d48:	0046e300 	call	46e30 <__mcmp>
   43d4c:	d8c01617 	ldw	r3,88(sp)
   43d50:	e009883a 	mov	r4,fp
   43d54:	d8801615 	stw	r2,88(sp)
   43d58:	180b883a 	mov	r5,r3
   43d5c:	00466100 	call	46610 <_Bfree>
   43d60:	d8801617 	ldw	r2,88(sp)
   43d64:	1000041e 	bne	r2,zero,43d78 <_dtoa_r+0xeac>
   43d68:	d9800317 	ldw	r6,12(sp)
   43d6c:	3000021e 	bne	r6,zero,43d78 <_dtoa_r+0xeac>
   43d70:	d8c00617 	ldw	r3,24(sp)
   43d74:	18003726 	beq	r3,zero,43e54 <_dtoa_r+0xf88>
   43d78:	b0002016 	blt	r22,zero,43dfc <_dtoa_r+0xf30>
   43d7c:	b000041e 	bne	r22,zero,43d90 <_dtoa_r+0xec4>
   43d80:	d9000317 	ldw	r4,12(sp)
   43d84:	2000021e 	bne	r4,zero,43d90 <_dtoa_r+0xec4>
   43d88:	d8c00617 	ldw	r3,24(sp)
   43d8c:	18001b26 	beq	r3,zero,43dfc <_dtoa_r+0xf30>
   43d90:	00810716 	blt	zero,r2,441b0 <_dtoa_r+0x12e4>
   43d94:	d8c00417 	ldw	r3,16(sp)
   43d98:	9d800044 	addi	r22,r19,1
   43d9c:	9c800005 	stb	r18,0(r19)
   43da0:	b02f883a 	mov	r23,r22
   43da4:	98c10626 	beq	r19,r3,441c0 <_dtoa_r+0x12f4>
   43da8:	800b883a 	mov	r5,r16
   43dac:	000f883a 	mov	r7,zero
   43db0:	01800284 	movi	r6,10
   43db4:	e009883a 	mov	r4,fp
   43db8:	00466380 	call	46638 <__multadd>
   43dbc:	1021883a 	mov	r16,r2
   43dc0:	000f883a 	mov	r7,zero
   43dc4:	01800284 	movi	r6,10
   43dc8:	880b883a 	mov	r5,r17
   43dcc:	e009883a 	mov	r4,fp
   43dd0:	8d002526 	beq	r17,r20,43e68 <_dtoa_r+0xf9c>
   43dd4:	00466380 	call	46638 <__multadd>
   43dd8:	a00b883a 	mov	r5,r20
   43ddc:	000f883a 	mov	r7,zero
   43de0:	01800284 	movi	r6,10
   43de4:	e009883a 	mov	r4,fp
   43de8:	1023883a 	mov	r17,r2
   43dec:	00466380 	call	46638 <__multadd>
   43df0:	1029883a 	mov	r20,r2
   43df4:	b027883a 	mov	r19,r22
   43df8:	003fc006 	br	43cfc <__alt_mem_onchip_memory2_1+0xfffc2cfc>
   43dfc:	9011883a 	mov	r8,r18
   43e00:	00800e0e 	bge	zero,r2,43e3c <_dtoa_r+0xf70>
   43e04:	800b883a 	mov	r5,r16
   43e08:	01800044 	movi	r6,1
   43e0c:	e009883a 	mov	r4,fp
   43e10:	da001715 	stw	r8,92(sp)
   43e14:	0046ce80 	call	46ce8 <__lshift>
   43e18:	a80b883a 	mov	r5,r21
   43e1c:	1009883a 	mov	r4,r2
   43e20:	1021883a 	mov	r16,r2
   43e24:	0046e300 	call	46e30 <__mcmp>
   43e28:	da001717 	ldw	r8,92(sp)
   43e2c:	0081960e 	bge	zero,r2,44488 <_dtoa_r+0x15bc>
   43e30:	00800e44 	movi	r2,57
   43e34:	40817026 	beq	r8,r2,443f8 <_dtoa_r+0x152c>
   43e38:	ba000c44 	addi	r8,r23,49
   43e3c:	8825883a 	mov	r18,r17
   43e40:	9dc00044 	addi	r23,r19,1
   43e44:	9a000005 	stb	r8,0(r19)
   43e48:	a023883a 	mov	r17,r20
   43e4c:	dc000915 	stw	r16,36(sp)
   43e50:	003f2406 	br	43ae4 <__alt_mem_onchip_memory2_1+0xfffc2ae4>
   43e54:	00800e44 	movi	r2,57
   43e58:	9011883a 	mov	r8,r18
   43e5c:	90816626 	beq	r18,r2,443f8 <_dtoa_r+0x152c>
   43e60:	05bff516 	blt	zero,r22,43e38 <__alt_mem_onchip_memory2_1+0xfffc2e38>
   43e64:	003ff506 	br	43e3c <__alt_mem_onchip_memory2_1+0xfffc2e3c>
   43e68:	00466380 	call	46638 <__multadd>
   43e6c:	1023883a 	mov	r17,r2
   43e70:	1029883a 	mov	r20,r2
   43e74:	003fdf06 	br	43df4 <__alt_mem_onchip_memory2_1+0xfffc2df4>
   43e78:	e009883a 	mov	r4,fp
   43e7c:	00466100 	call	46610 <_Bfree>
   43e80:	00800044 	movi	r2,1
   43e84:	003fbc06 	br	43d78 <__alt_mem_onchip_memory2_1+0xfffc2d78>
   43e88:	a80b883a 	mov	r5,r21
   43e8c:	8009883a 	mov	r4,r16
   43e90:	0046e300 	call	46e30 <__mcmp>
   43e94:	103edb0e 	bge	r2,zero,43a04 <__alt_mem_onchip_memory2_1+0xfffc2a04>
   43e98:	800b883a 	mov	r5,r16
   43e9c:	000f883a 	mov	r7,zero
   43ea0:	01800284 	movi	r6,10
   43ea4:	e009883a 	mov	r4,fp
   43ea8:	00466380 	call	46638 <__multadd>
   43eac:	1021883a 	mov	r16,r2
   43eb0:	d8800517 	ldw	r2,20(sp)
   43eb4:	d8c00b17 	ldw	r3,44(sp)
   43eb8:	10bfffc4 	addi	r2,r2,-1
   43ebc:	d8800515 	stw	r2,20(sp)
   43ec0:	183f761e 	bne	r3,zero,43c9c <__alt_mem_onchip_memory2_1+0xfffc2c9c>
   43ec4:	d9000c17 	ldw	r4,48(sp)
   43ec8:	0101730e 	bge	zero,r4,44498 <_dtoa_r+0x15cc>
   43ecc:	d9000615 	stw	r4,24(sp)
   43ed0:	003ed006 	br	43a14 <__alt_mem_onchip_memory2_1+0xfffc2a14>
   43ed4:	00800084 	movi	r2,2
   43ed8:	3081861e 	bne	r6,r2,444f4 <_dtoa_r+0x1628>
   43edc:	d8000b15 	stw	zero,44(sp)
   43ee0:	003f3c06 	br	43bd4 <__alt_mem_onchip_memory2_1+0xfffc2bd4>
   43ee4:	dc000917 	ldw	r16,36(sp)
   43ee8:	003e9206 	br	43934 <__alt_mem_onchip_memory2_1+0xfffc2934>
   43eec:	d9c00317 	ldw	r7,12(sp)
   43ef0:	00800084 	movi	r2,2
   43ef4:	11fec50e 	bge	r2,r7,43a0c <__alt_mem_onchip_memory2_1+0xfffc2a0c>
   43ef8:	d9000617 	ldw	r4,24(sp)
   43efc:	20013c1e 	bne	r4,zero,443f0 <_dtoa_r+0x1524>
   43f00:	a80b883a 	mov	r5,r21
   43f04:	000f883a 	mov	r7,zero
   43f08:	01800144 	movi	r6,5
   43f0c:	e009883a 	mov	r4,fp
   43f10:	00466380 	call	46638 <__multadd>
   43f14:	100b883a 	mov	r5,r2
   43f18:	8009883a 	mov	r4,r16
   43f1c:	102b883a 	mov	r21,r2
   43f20:	0046e300 	call	46e30 <__mcmp>
   43f24:	dc000915 	stw	r16,36(sp)
   43f28:	00bf410e 	bge	zero,r2,43c30 <__alt_mem_onchip_memory2_1+0xfffc2c30>
   43f2c:	d9c00717 	ldw	r7,28(sp)
   43f30:	00800c44 	movi	r2,49
   43f34:	38800005 	stb	r2,0(r7)
   43f38:	d8800517 	ldw	r2,20(sp)
   43f3c:	3dc00044 	addi	r23,r7,1
   43f40:	10800044 	addi	r2,r2,1
   43f44:	d8800515 	stw	r2,20(sp)
   43f48:	003f3d06 	br	43c40 <__alt_mem_onchip_memory2_1+0xfffc2c40>
   43f4c:	d9800517 	ldw	r6,20(sp)
   43f50:	d9c00717 	ldw	r7,28(sp)
   43f54:	00800c44 	movi	r2,49
   43f58:	31800044 	addi	r6,r6,1
   43f5c:	d9800515 	stw	r6,20(sp)
   43f60:	38800005 	stb	r2,0(r7)
   43f64:	003edf06 	br	43ae4 <__alt_mem_onchip_memory2_1+0xfffc2ae4>
   43f68:	d8000b15 	stw	zero,44(sp)
   43f6c:	003c9f06 	br	431ec <__alt_mem_onchip_memory2_1+0xfffc21ec>
   43f70:	903e7e1e 	bne	r18,zero,4396c <__alt_mem_onchip_memory2_1+0xfffc296c>
   43f74:	00800434 	movhi	r2,16
   43f78:	10bfffc4 	addi	r2,r2,-1
   43f7c:	9884703a 	and	r2,r19,r2
   43f80:	1000ea1e 	bne	r2,zero,4432c <_dtoa_r+0x1460>
   43f84:	9cdffc2c 	andhi	r19,r19,32752
   43f88:	9800e826 	beq	r19,zero,4432c <_dtoa_r+0x1460>
   43f8c:	d9c00817 	ldw	r7,32(sp)
   43f90:	b5800044 	addi	r22,r22,1
   43f94:	04c00044 	movi	r19,1
   43f98:	39c00044 	addi	r7,r7,1
   43f9c:	d9c00815 	stw	r7,32(sp)
   43fa0:	d8800d17 	ldw	r2,52(sp)
   43fa4:	103e721e 	bne	r2,zero,43970 <__alt_mem_onchip_memory2_1+0xfffc2970>
   43fa8:	00800044 	movi	r2,1
   43fac:	003e7906 	br	43994 <__alt_mem_onchip_memory2_1+0xfffc2994>
   43fb0:	8009883a 	mov	r4,r16
   43fb4:	004ce080 	call	4ce08 <__floatsidf>
   43fb8:	d9800f17 	ldw	r6,60(sp)
   43fbc:	d9c01017 	ldw	r7,64(sp)
   43fc0:	1009883a 	mov	r4,r2
   43fc4:	180b883a 	mov	r5,r3
   43fc8:	004bd740 	call	4bd74 <__muldf3>
   43fcc:	000d883a 	mov	r6,zero
   43fd0:	01d00734 	movhi	r7,16412
   43fd4:	1009883a 	mov	r4,r2
   43fd8:	180b883a 	mov	r5,r3
   43fdc:	004a9880 	call	4a988 <__adddf3>
   43fe0:	047f3034 	movhi	r17,64704
   43fe4:	1021883a 	mov	r16,r2
   43fe8:	1c63883a 	add	r17,r3,r17
   43fec:	d9000f17 	ldw	r4,60(sp)
   43ff0:	d9401017 	ldw	r5,64(sp)
   43ff4:	000d883a 	mov	r6,zero
   43ff8:	01d00534 	movhi	r7,16404
   43ffc:	004c48c0 	call	4c48c <__subdf3>
   44000:	800d883a 	mov	r6,r16
   44004:	880f883a 	mov	r7,r17
   44008:	1009883a 	mov	r4,r2
   4400c:	180b883a 	mov	r5,r3
   44010:	102b883a 	mov	r21,r2
   44014:	1829883a 	mov	r20,r3
   44018:	004bba40 	call	4bba4 <__gedf2>
   4401c:	00806c16 	blt	zero,r2,441d0 <_dtoa_r+0x1304>
   44020:	89e0003c 	xorhi	r7,r17,32768
   44024:	800d883a 	mov	r6,r16
   44028:	a809883a 	mov	r4,r21
   4402c:	a00b883a 	mov	r5,r20
   44030:	004bc800 	call	4bc80 <__ledf2>
   44034:	103d7e0e 	bge	r2,zero,43630 <__alt_mem_onchip_memory2_1+0xfffc2630>
   44038:	002b883a 	mov	r21,zero
   4403c:	0023883a 	mov	r17,zero
   44040:	003efb06 	br	43c30 <__alt_mem_onchip_memory2_1+0xfffc2c30>
   44044:	d8800717 	ldw	r2,28(sp)
   44048:	003bd006 	br	42f8c <__alt_mem_onchip_memory2_1+0xfffc1f8c>
   4404c:	d9000a17 	ldw	r4,40(sp)
   44050:	d9800d17 	ldw	r6,52(sp)
   44054:	dd400a15 	stw	r21,40(sp)
   44058:	a905c83a 	sub	r2,r21,r4
   4405c:	308d883a 	add	r6,r6,r2
   44060:	d9800d15 	stw	r6,52(sp)
   44064:	002b883a 	mov	r21,zero
   44068:	003e0606 	br	43884 <__alt_mem_onchip_memory2_1+0xfffc2884>
   4406c:	9023883a 	mov	r17,r18
   44070:	9829883a 	mov	r20,r19
   44074:	04000084 	movi	r16,2
   44078:	003c9206 	br	432c4 <__alt_mem_onchip_memory2_1+0xfffc22c4>
   4407c:	04000044 	movi	r16,1
   44080:	dc000c15 	stw	r16,48(sp)
   44084:	dc000615 	stw	r16,24(sp)
   44088:	dc002215 	stw	r16,136(sp)
   4408c:	e0001115 	stw	zero,68(fp)
   44090:	000b883a 	mov	r5,zero
   44094:	003c6906 	br	4323c <__alt_mem_onchip_memory2_1+0xfffc223c>
   44098:	3021883a 	mov	r16,r6
   4409c:	003ffb06 	br	4408c <__alt_mem_onchip_memory2_1+0xfffc308c>
   440a0:	1000021e 	bne	r2,zero,440ac <_dtoa_r+0x11e0>
   440a4:	4200004c 	andi	r8,r8,1
   440a8:	403e7d1e 	bne	r8,zero,43aa0 <__alt_mem_onchip_memory2_1+0xfffc2aa0>
   440ac:	01000c04 	movi	r4,48
   440b0:	00000106 	br	440b8 <_dtoa_r+0x11ec>
   440b4:	102f883a 	mov	r23,r2
   440b8:	b8bfffc4 	addi	r2,r23,-1
   440bc:	10c00007 	ldb	r3,0(r2)
   440c0:	193ffc26 	beq	r3,r4,440b4 <__alt_mem_onchip_memory2_1+0xfffc30b4>
   440c4:	003e8706 	br	43ae4 <__alt_mem_onchip_memory2_1+0xfffc2ae4>
   440c8:	d8800517 	ldw	r2,20(sp)
   440cc:	00a3c83a 	sub	r17,zero,r2
   440d0:	8800a426 	beq	r17,zero,44364 <_dtoa_r+0x1498>
   440d4:	888003cc 	andi	r2,r17,15
   440d8:	100490fa 	slli	r2,r2,3
   440dc:	00c00174 	movhi	r3,5
   440e0:	18febb04 	addi	r3,r3,-1300
   440e4:	1885883a 	add	r2,r3,r2
   440e8:	11800017 	ldw	r6,0(r2)
   440ec:	11c00117 	ldw	r7,4(r2)
   440f0:	9009883a 	mov	r4,r18
   440f4:	980b883a 	mov	r5,r19
   440f8:	8823d13a 	srai	r17,r17,4
   440fc:	004bd740 	call	4bd74 <__muldf3>
   44100:	d8800f15 	stw	r2,60(sp)
   44104:	d8c01015 	stw	r3,64(sp)
   44108:	8800e826 	beq	r17,zero,444ac <_dtoa_r+0x15e0>
   4410c:	05000174 	movhi	r20,5
   44110:	a53eb104 	addi	r20,r20,-1340
   44114:	04000084 	movi	r16,2
   44118:	8980004c 	andi	r6,r17,1
   4411c:	1009883a 	mov	r4,r2
   44120:	8823d07a 	srai	r17,r17,1
   44124:	180b883a 	mov	r5,r3
   44128:	30000426 	beq	r6,zero,4413c <_dtoa_r+0x1270>
   4412c:	a1800017 	ldw	r6,0(r20)
   44130:	a1c00117 	ldw	r7,4(r20)
   44134:	84000044 	addi	r16,r16,1
   44138:	004bd740 	call	4bd74 <__muldf3>
   4413c:	a5000204 	addi	r20,r20,8
   44140:	883ff51e 	bne	r17,zero,44118 <__alt_mem_onchip_memory2_1+0xfffc3118>
   44144:	d8800f15 	stw	r2,60(sp)
   44148:	d8c01015 	stw	r3,64(sp)
   4414c:	003c7606 	br	43328 <__alt_mem_onchip_memory2_1+0xfffc2328>
   44150:	00c00c04 	movi	r3,48
   44154:	10c00005 	stb	r3,0(r2)
   44158:	d8c00517 	ldw	r3,20(sp)
   4415c:	bd3fffc3 	ldbu	r20,-1(r23)
   44160:	18c00044 	addi	r3,r3,1
   44164:	d8c00515 	stw	r3,20(sp)
   44168:	003db906 	br	43850 <__alt_mem_onchip_memory2_1+0xfffc2850>
   4416c:	89400117 	ldw	r5,4(r17)
   44170:	e009883a 	mov	r4,fp
   44174:	00465680 	call	46568 <_Balloc>
   44178:	89800417 	ldw	r6,16(r17)
   4417c:	89400304 	addi	r5,r17,12
   44180:	11000304 	addi	r4,r2,12
   44184:	31800084 	addi	r6,r6,2
   44188:	318d883a 	add	r6,r6,r6
   4418c:	318d883a 	add	r6,r6,r6
   44190:	1027883a 	mov	r19,r2
   44194:	004619c0 	call	4619c <memcpy>
   44198:	01800044 	movi	r6,1
   4419c:	980b883a 	mov	r5,r19
   441a0:	e009883a 	mov	r4,fp
   441a4:	0046ce80 	call	46ce8 <__lshift>
   441a8:	1029883a 	mov	r20,r2
   441ac:	003ecc06 	br	43ce0 <__alt_mem_onchip_memory2_1+0xfffc2ce0>
   441b0:	00800e44 	movi	r2,57
   441b4:	90809026 	beq	r18,r2,443f8 <_dtoa_r+0x152c>
   441b8:	92000044 	addi	r8,r18,1
   441bc:	003f1f06 	br	43e3c <__alt_mem_onchip_memory2_1+0xfffc2e3c>
   441c0:	9011883a 	mov	r8,r18
   441c4:	8825883a 	mov	r18,r17
   441c8:	a023883a 	mov	r17,r20
   441cc:	003e2906 	br	43a74 <__alt_mem_onchip_memory2_1+0xfffc2a74>
   441d0:	002b883a 	mov	r21,zero
   441d4:	0023883a 	mov	r17,zero
   441d8:	003f5406 	br	43f2c <__alt_mem_onchip_memory2_1+0xfffc2f2c>
   441dc:	61bfffc4 	addi	r6,r12,-1
   441e0:	300490fa 	slli	r2,r6,3
   441e4:	00c00174 	movhi	r3,5
   441e8:	18febb04 	addi	r3,r3,-1300
   441ec:	1885883a 	add	r2,r3,r2
   441f0:	11000017 	ldw	r4,0(r2)
   441f4:	11400117 	ldw	r5,4(r2)
   441f8:	d8800717 	ldw	r2,28(sp)
   441fc:	880f883a 	mov	r7,r17
   44200:	d9801215 	stw	r6,72(sp)
   44204:	800d883a 	mov	r6,r16
   44208:	db001615 	stw	r12,88(sp)
   4420c:	15c00044 	addi	r23,r2,1
   44210:	004bd740 	call	4bd74 <__muldf3>
   44214:	d9401017 	ldw	r5,64(sp)
   44218:	d9000f17 	ldw	r4,60(sp)
   4421c:	d8c01515 	stw	r3,84(sp)
   44220:	d8801415 	stw	r2,80(sp)
   44224:	004cd880 	call	4cd88 <__fixdfsi>
   44228:	1009883a 	mov	r4,r2
   4422c:	1021883a 	mov	r16,r2
   44230:	004ce080 	call	4ce08 <__floatsidf>
   44234:	d9000f17 	ldw	r4,60(sp)
   44238:	d9401017 	ldw	r5,64(sp)
   4423c:	100d883a 	mov	r6,r2
   44240:	180f883a 	mov	r7,r3
   44244:	004c48c0 	call	4c48c <__subdf3>
   44248:	1829883a 	mov	r20,r3
   4424c:	d8c00717 	ldw	r3,28(sp)
   44250:	84000c04 	addi	r16,r16,48
   44254:	1023883a 	mov	r17,r2
   44258:	1c000005 	stb	r16,0(r3)
   4425c:	db001617 	ldw	r12,88(sp)
   44260:	00800044 	movi	r2,1
   44264:	60802226 	beq	r12,r2,442f0 <_dtoa_r+0x1424>
   44268:	d9c00717 	ldw	r7,28(sp)
   4426c:	8805883a 	mov	r2,r17
   44270:	b82b883a 	mov	r21,r23
   44274:	3b19883a 	add	r12,r7,r12
   44278:	6023883a 	mov	r17,r12
   4427c:	a007883a 	mov	r3,r20
   44280:	dc800f15 	stw	r18,60(sp)
   44284:	000d883a 	mov	r6,zero
   44288:	01d00934 	movhi	r7,16420
   4428c:	1009883a 	mov	r4,r2
   44290:	180b883a 	mov	r5,r3
   44294:	004bd740 	call	4bd74 <__muldf3>
   44298:	180b883a 	mov	r5,r3
   4429c:	1009883a 	mov	r4,r2
   442a0:	1829883a 	mov	r20,r3
   442a4:	1025883a 	mov	r18,r2
   442a8:	004cd880 	call	4cd88 <__fixdfsi>
   442ac:	1009883a 	mov	r4,r2
   442b0:	1021883a 	mov	r16,r2
   442b4:	004ce080 	call	4ce08 <__floatsidf>
   442b8:	100d883a 	mov	r6,r2
   442bc:	180f883a 	mov	r7,r3
   442c0:	9009883a 	mov	r4,r18
   442c4:	a00b883a 	mov	r5,r20
   442c8:	84000c04 	addi	r16,r16,48
   442cc:	004c48c0 	call	4c48c <__subdf3>
   442d0:	ad400044 	addi	r21,r21,1
   442d4:	ac3fffc5 	stb	r16,-1(r21)
   442d8:	ac7fea1e 	bne	r21,r17,44284 <__alt_mem_onchip_memory2_1+0xfffc3284>
   442dc:	1023883a 	mov	r17,r2
   442e0:	d8801217 	ldw	r2,72(sp)
   442e4:	dc800f17 	ldw	r18,60(sp)
   442e8:	1829883a 	mov	r20,r3
   442ec:	b8af883a 	add	r23,r23,r2
   442f0:	d9001417 	ldw	r4,80(sp)
   442f4:	d9401517 	ldw	r5,84(sp)
   442f8:	000d883a 	mov	r6,zero
   442fc:	01cff834 	movhi	r7,16352
   44300:	004a9880 	call	4a988 <__adddf3>
   44304:	880d883a 	mov	r6,r17
   44308:	a00f883a 	mov	r7,r20
   4430c:	1009883a 	mov	r4,r2
   44310:	180b883a 	mov	r5,r3
   44314:	004bc800 	call	4bc80 <__ledf2>
   44318:	10003e0e 	bge	r2,zero,44414 <_dtoa_r+0x1548>
   4431c:	d9001317 	ldw	r4,76(sp)
   44320:	bd3fffc3 	ldbu	r20,-1(r23)
   44324:	d9000515 	stw	r4,20(sp)
   44328:	003d3b06 	br	43818 <__alt_mem_onchip_memory2_1+0xfffc2818>
   4432c:	0027883a 	mov	r19,zero
   44330:	003f1b06 	br	43fa0 <__alt_mem_onchip_memory2_1+0xfffc2fa0>
   44334:	d8800817 	ldw	r2,32(sp)
   44338:	11e9c83a 	sub	r20,r2,r7
   4433c:	0005883a 	mov	r2,zero
   44340:	003d5406 	br	43894 <__alt_mem_onchip_memory2_1+0xfffc2894>
   44344:	00800044 	movi	r2,1
   44348:	003dc706 	br	43a68 <__alt_mem_onchip_memory2_1+0xfffc2a68>
   4434c:	d8c00217 	ldw	r3,8(sp)
   44350:	00800d84 	movi	r2,54
   44354:	dd400a17 	ldw	r21,40(sp)
   44358:	10c5c83a 	sub	r2,r2,r3
   4435c:	dd000817 	ldw	r20,32(sp)
   44360:	003d4c06 	br	43894 <__alt_mem_onchip_memory2_1+0xfffc2894>
   44364:	dc800f15 	stw	r18,60(sp)
   44368:	dcc01015 	stw	r19,64(sp)
   4436c:	04000084 	movi	r16,2
   44370:	003bed06 	br	43328 <__alt_mem_onchip_memory2_1+0xfffc2328>
   44374:	d9000617 	ldw	r4,24(sp)
   44378:	203f0d26 	beq	r4,zero,43fb0 <__alt_mem_onchip_memory2_1+0xfffc2fb0>
   4437c:	d9800c17 	ldw	r6,48(sp)
   44380:	01bcab0e 	bge	zero,r6,43630 <__alt_mem_onchip_memory2_1+0xfffc2630>
   44384:	d9401017 	ldw	r5,64(sp)
   44388:	d9000f17 	ldw	r4,60(sp)
   4438c:	000d883a 	mov	r6,zero
   44390:	01d00934 	movhi	r7,16420
   44394:	004bd740 	call	4bd74 <__muldf3>
   44398:	81000044 	addi	r4,r16,1
   4439c:	d8800f15 	stw	r2,60(sp)
   443a0:	d8c01015 	stw	r3,64(sp)
   443a4:	004ce080 	call	4ce08 <__floatsidf>
   443a8:	d9800f17 	ldw	r6,60(sp)
   443ac:	d9c01017 	ldw	r7,64(sp)
   443b0:	1009883a 	mov	r4,r2
   443b4:	180b883a 	mov	r5,r3
   443b8:	004bd740 	call	4bd74 <__muldf3>
   443bc:	01d00734 	movhi	r7,16412
   443c0:	000d883a 	mov	r6,zero
   443c4:	1009883a 	mov	r4,r2
   443c8:	180b883a 	mov	r5,r3
   443cc:	004a9880 	call	4a988 <__adddf3>
   443d0:	d9c00517 	ldw	r7,20(sp)
   443d4:	047f3034 	movhi	r17,64704
   443d8:	1021883a 	mov	r16,r2
   443dc:	39ffffc4 	addi	r7,r7,-1
   443e0:	d9c01315 	stw	r7,76(sp)
   443e4:	1c63883a 	add	r17,r3,r17
   443e8:	db000c17 	ldw	r12,48(sp)
   443ec:	003bea06 	br	43398 <__alt_mem_onchip_memory2_1+0xfffc2398>
   443f0:	dc000915 	stw	r16,36(sp)
   443f4:	003e0e06 	br	43c30 <__alt_mem_onchip_memory2_1+0xfffc2c30>
   443f8:	01000e44 	movi	r4,57
   443fc:	8825883a 	mov	r18,r17
   44400:	9dc00044 	addi	r23,r19,1
   44404:	99000005 	stb	r4,0(r19)
   44408:	a023883a 	mov	r17,r20
   4440c:	dc000915 	stw	r16,36(sp)
   44410:	003da406 	br	43aa4 <__alt_mem_onchip_memory2_1+0xfffc2aa4>
   44414:	d9801417 	ldw	r6,80(sp)
   44418:	d9c01517 	ldw	r7,84(sp)
   4441c:	0009883a 	mov	r4,zero
   44420:	014ff834 	movhi	r5,16352
   44424:	004c48c0 	call	4c48c <__subdf3>
   44428:	880d883a 	mov	r6,r17
   4442c:	a00f883a 	mov	r7,r20
   44430:	1009883a 	mov	r4,r2
   44434:	180b883a 	mov	r5,r3
   44438:	004bba40 	call	4bba4 <__gedf2>
   4443c:	00bc7c0e 	bge	zero,r2,43630 <__alt_mem_onchip_memory2_1+0xfffc2630>
   44440:	01000c04 	movi	r4,48
   44444:	00000106 	br	4444c <_dtoa_r+0x1580>
   44448:	102f883a 	mov	r23,r2
   4444c:	b8bfffc4 	addi	r2,r23,-1
   44450:	10c00007 	ldb	r3,0(r2)
   44454:	193ffc26 	beq	r3,r4,44448 <__alt_mem_onchip_memory2_1+0xfffc3448>
   44458:	d9801317 	ldw	r6,76(sp)
   4445c:	d9800515 	stw	r6,20(sp)
   44460:	003c4406 	br	43574 <__alt_mem_onchip_memory2_1+0xfffc2574>
   44464:	d9801317 	ldw	r6,76(sp)
   44468:	d9800515 	stw	r6,20(sp)
   4446c:	003cea06 	br	43818 <__alt_mem_onchip_memory2_1+0xfffc2818>
   44470:	dd800f17 	ldw	r22,60(sp)
   44474:	dcc01017 	ldw	r19,64(sp)
   44478:	dc801217 	ldw	r18,72(sp)
   4447c:	003c6c06 	br	43630 <__alt_mem_onchip_memory2_1+0xfffc2630>
   44480:	903e031e 	bne	r18,zero,43c90 <__alt_mem_onchip_memory2_1+0xfffc2c90>
   44484:	003ebb06 	br	43f74 <__alt_mem_onchip_memory2_1+0xfffc2f74>
   44488:	103e6c1e 	bne	r2,zero,43e3c <__alt_mem_onchip_memory2_1+0xfffc2e3c>
   4448c:	4080004c 	andi	r2,r8,1
   44490:	103e6a26 	beq	r2,zero,43e3c <__alt_mem_onchip_memory2_1+0xfffc2e3c>
   44494:	003e6606 	br	43e30 <__alt_mem_onchip_memory2_1+0xfffc2e30>
   44498:	d8c00317 	ldw	r3,12(sp)
   4449c:	00800084 	movi	r2,2
   444a0:	10c02916 	blt	r2,r3,44548 <_dtoa_r+0x167c>
   444a4:	d9000c17 	ldw	r4,48(sp)
   444a8:	003e8806 	br	43ecc <__alt_mem_onchip_memory2_1+0xfffc2ecc>
   444ac:	04000084 	movi	r16,2
   444b0:	003b9d06 	br	43328 <__alt_mem_onchip_memory2_1+0xfffc2328>
   444b4:	d9001317 	ldw	r4,76(sp)
   444b8:	d9000515 	stw	r4,20(sp)
   444bc:	003cd606 	br	43818 <__alt_mem_onchip_memory2_1+0xfffc2818>
   444c0:	d8801317 	ldw	r2,76(sp)
   444c4:	d8800515 	stw	r2,20(sp)
   444c8:	003c2a06 	br	43574 <__alt_mem_onchip_memory2_1+0xfffc2574>
   444cc:	d9800317 	ldw	r6,12(sp)
   444d0:	00800084 	movi	r2,2
   444d4:	11801516 	blt	r2,r6,4452c <_dtoa_r+0x1660>
   444d8:	d9c00c17 	ldw	r7,48(sp)
   444dc:	d9c00615 	stw	r7,24(sp)
   444e0:	003df706 	br	43cc0 <__alt_mem_onchip_memory2_1+0xfffc2cc0>
   444e4:	193d3926 	beq	r3,r4,439cc <__alt_mem_onchip_memory2_1+0xfffc29cc>
   444e8:	00c00f04 	movi	r3,60
   444ec:	1885c83a 	sub	r2,r3,r2
   444f0:	003ddf06 	br	43c70 <__alt_mem_onchip_memory2_1+0xfffc2c70>
   444f4:	e009883a 	mov	r4,fp
   444f8:	e0001115 	stw	zero,68(fp)
   444fc:	000b883a 	mov	r5,zero
   44500:	00465680 	call	46568 <_Balloc>
   44504:	d8800715 	stw	r2,28(sp)
   44508:	d8c00717 	ldw	r3,28(sp)
   4450c:	00bfffc4 	movi	r2,-1
   44510:	01000044 	movi	r4,1
   44514:	d8800c15 	stw	r2,48(sp)
   44518:	e0c01015 	stw	r3,64(fp)
   4451c:	d9000b15 	stw	r4,44(sp)
   44520:	d8800615 	stw	r2,24(sp)
   44524:	d8002215 	stw	zero,136(sp)
   44528:	003c4106 	br	43630 <__alt_mem_onchip_memory2_1+0xfffc2630>
   4452c:	d8c00c17 	ldw	r3,48(sp)
   44530:	d8c00615 	stw	r3,24(sp)
   44534:	003e7006 	br	43ef8 <__alt_mem_onchip_memory2_1+0xfffc2ef8>
   44538:	04400044 	movi	r17,1
   4453c:	003b2006 	br	431c0 <__alt_mem_onchip_memory2_1+0xfffc21c0>
   44540:	000b883a 	mov	r5,zero
   44544:	003b3d06 	br	4323c <__alt_mem_onchip_memory2_1+0xfffc223c>
   44548:	d8800c17 	ldw	r2,48(sp)
   4454c:	d8800615 	stw	r2,24(sp)
   44550:	003e6906 	br	43ef8 <__alt_mem_onchip_memory2_1+0xfffc2ef8>

00044554 <__sflush_r>:
   44554:	2880030b 	ldhu	r2,12(r5)
   44558:	defffb04 	addi	sp,sp,-20
   4455c:	dcc00315 	stw	r19,12(sp)
   44560:	dc400115 	stw	r17,4(sp)
   44564:	dfc00415 	stw	ra,16(sp)
   44568:	dc800215 	stw	r18,8(sp)
   4456c:	dc000015 	stw	r16,0(sp)
   44570:	10c0020c 	andi	r3,r2,8
   44574:	2823883a 	mov	r17,r5
   44578:	2027883a 	mov	r19,r4
   4457c:	1800311e 	bne	r3,zero,44644 <__sflush_r+0xf0>
   44580:	28c00117 	ldw	r3,4(r5)
   44584:	10820014 	ori	r2,r2,2048
   44588:	2880030d 	sth	r2,12(r5)
   4458c:	00c04b0e 	bge	zero,r3,446bc <__sflush_r+0x168>
   44590:	8a000a17 	ldw	r8,40(r17)
   44594:	40002326 	beq	r8,zero,44624 <__sflush_r+0xd0>
   44598:	9c000017 	ldw	r16,0(r19)
   4459c:	10c4000c 	andi	r3,r2,4096
   445a0:	98000015 	stw	zero,0(r19)
   445a4:	18004826 	beq	r3,zero,446c8 <__sflush_r+0x174>
   445a8:	89801417 	ldw	r6,80(r17)
   445ac:	10c0010c 	andi	r3,r2,4
   445b0:	18000626 	beq	r3,zero,445cc <__sflush_r+0x78>
   445b4:	88c00117 	ldw	r3,4(r17)
   445b8:	88800c17 	ldw	r2,48(r17)
   445bc:	30cdc83a 	sub	r6,r6,r3
   445c0:	10000226 	beq	r2,zero,445cc <__sflush_r+0x78>
   445c4:	88800f17 	ldw	r2,60(r17)
   445c8:	308dc83a 	sub	r6,r6,r2
   445cc:	89400717 	ldw	r5,28(r17)
   445d0:	000f883a 	mov	r7,zero
   445d4:	9809883a 	mov	r4,r19
   445d8:	403ee83a 	callr	r8
   445dc:	00ffffc4 	movi	r3,-1
   445e0:	10c04426 	beq	r2,r3,446f4 <__sflush_r+0x1a0>
   445e4:	88c0030b 	ldhu	r3,12(r17)
   445e8:	89000417 	ldw	r4,16(r17)
   445ec:	88000115 	stw	zero,4(r17)
   445f0:	197dffcc 	andi	r5,r3,63487
   445f4:	8940030d 	sth	r5,12(r17)
   445f8:	89000015 	stw	r4,0(r17)
   445fc:	18c4000c 	andi	r3,r3,4096
   44600:	18002c1e 	bne	r3,zero,446b4 <__sflush_r+0x160>
   44604:	89400c17 	ldw	r5,48(r17)
   44608:	9c000015 	stw	r16,0(r19)
   4460c:	28000526 	beq	r5,zero,44624 <__sflush_r+0xd0>
   44610:	88801004 	addi	r2,r17,64
   44614:	28800226 	beq	r5,r2,44620 <__sflush_r+0xcc>
   44618:	9809883a 	mov	r4,r19
   4461c:	0044cc00 	call	44cc0 <_free_r>
   44620:	88000c15 	stw	zero,48(r17)
   44624:	0005883a 	mov	r2,zero
   44628:	dfc00417 	ldw	ra,16(sp)
   4462c:	dcc00317 	ldw	r19,12(sp)
   44630:	dc800217 	ldw	r18,8(sp)
   44634:	dc400117 	ldw	r17,4(sp)
   44638:	dc000017 	ldw	r16,0(sp)
   4463c:	dec00504 	addi	sp,sp,20
   44640:	f800283a 	ret
   44644:	2c800417 	ldw	r18,16(r5)
   44648:	903ff626 	beq	r18,zero,44624 <__alt_mem_onchip_memory2_1+0xfffc3624>
   4464c:	2c000017 	ldw	r16,0(r5)
   44650:	108000cc 	andi	r2,r2,3
   44654:	2c800015 	stw	r18,0(r5)
   44658:	84a1c83a 	sub	r16,r16,r18
   4465c:	1000131e 	bne	r2,zero,446ac <__sflush_r+0x158>
   44660:	28800517 	ldw	r2,20(r5)
   44664:	88800215 	stw	r2,8(r17)
   44668:	04000316 	blt	zero,r16,44678 <__sflush_r+0x124>
   4466c:	003fed06 	br	44624 <__alt_mem_onchip_memory2_1+0xfffc3624>
   44670:	90a5883a 	add	r18,r18,r2
   44674:	043feb0e 	bge	zero,r16,44624 <__alt_mem_onchip_memory2_1+0xfffc3624>
   44678:	88800917 	ldw	r2,36(r17)
   4467c:	89400717 	ldw	r5,28(r17)
   44680:	800f883a 	mov	r7,r16
   44684:	900d883a 	mov	r6,r18
   44688:	9809883a 	mov	r4,r19
   4468c:	103ee83a 	callr	r2
   44690:	80a1c83a 	sub	r16,r16,r2
   44694:	00bff616 	blt	zero,r2,44670 <__alt_mem_onchip_memory2_1+0xfffc3670>
   44698:	88c0030b 	ldhu	r3,12(r17)
   4469c:	00bfffc4 	movi	r2,-1
   446a0:	18c01014 	ori	r3,r3,64
   446a4:	88c0030d 	sth	r3,12(r17)
   446a8:	003fdf06 	br	44628 <__alt_mem_onchip_memory2_1+0xfffc3628>
   446ac:	0005883a 	mov	r2,zero
   446b0:	003fec06 	br	44664 <__alt_mem_onchip_memory2_1+0xfffc3664>
   446b4:	88801415 	stw	r2,80(r17)
   446b8:	003fd206 	br	44604 <__alt_mem_onchip_memory2_1+0xfffc3604>
   446bc:	28c00f17 	ldw	r3,60(r5)
   446c0:	00ffb316 	blt	zero,r3,44590 <__alt_mem_onchip_memory2_1+0xfffc3590>
   446c4:	003fd706 	br	44624 <__alt_mem_onchip_memory2_1+0xfffc3624>
   446c8:	89400717 	ldw	r5,28(r17)
   446cc:	000d883a 	mov	r6,zero
   446d0:	01c00044 	movi	r7,1
   446d4:	9809883a 	mov	r4,r19
   446d8:	403ee83a 	callr	r8
   446dc:	100d883a 	mov	r6,r2
   446e0:	00bfffc4 	movi	r2,-1
   446e4:	30801426 	beq	r6,r2,44738 <__sflush_r+0x1e4>
   446e8:	8880030b 	ldhu	r2,12(r17)
   446ec:	8a000a17 	ldw	r8,40(r17)
   446f0:	003fae06 	br	445ac <__alt_mem_onchip_memory2_1+0xfffc35ac>
   446f4:	98c00017 	ldw	r3,0(r19)
   446f8:	183fba26 	beq	r3,zero,445e4 <__alt_mem_onchip_memory2_1+0xfffc35e4>
   446fc:	01000744 	movi	r4,29
   44700:	19000626 	beq	r3,r4,4471c <__sflush_r+0x1c8>
   44704:	01000584 	movi	r4,22
   44708:	19000426 	beq	r3,r4,4471c <__sflush_r+0x1c8>
   4470c:	88c0030b 	ldhu	r3,12(r17)
   44710:	18c01014 	ori	r3,r3,64
   44714:	88c0030d 	sth	r3,12(r17)
   44718:	003fc306 	br	44628 <__alt_mem_onchip_memory2_1+0xfffc3628>
   4471c:	8880030b 	ldhu	r2,12(r17)
   44720:	88c00417 	ldw	r3,16(r17)
   44724:	88000115 	stw	zero,4(r17)
   44728:	10bdffcc 	andi	r2,r2,63487
   4472c:	8880030d 	sth	r2,12(r17)
   44730:	88c00015 	stw	r3,0(r17)
   44734:	003fb306 	br	44604 <__alt_mem_onchip_memory2_1+0xfffc3604>
   44738:	98800017 	ldw	r2,0(r19)
   4473c:	103fea26 	beq	r2,zero,446e8 <__alt_mem_onchip_memory2_1+0xfffc36e8>
   44740:	00c00744 	movi	r3,29
   44744:	10c00226 	beq	r2,r3,44750 <__sflush_r+0x1fc>
   44748:	00c00584 	movi	r3,22
   4474c:	10c0031e 	bne	r2,r3,4475c <__sflush_r+0x208>
   44750:	9c000015 	stw	r16,0(r19)
   44754:	0005883a 	mov	r2,zero
   44758:	003fb306 	br	44628 <__alt_mem_onchip_memory2_1+0xfffc3628>
   4475c:	88c0030b 	ldhu	r3,12(r17)
   44760:	3005883a 	mov	r2,r6
   44764:	18c01014 	ori	r3,r3,64
   44768:	88c0030d 	sth	r3,12(r17)
   4476c:	003fae06 	br	44628 <__alt_mem_onchip_memory2_1+0xfffc3628>

00044770 <_fflush_r>:
   44770:	defffd04 	addi	sp,sp,-12
   44774:	dc000115 	stw	r16,4(sp)
   44778:	dfc00215 	stw	ra,8(sp)
   4477c:	2021883a 	mov	r16,r4
   44780:	20000226 	beq	r4,zero,4478c <_fflush_r+0x1c>
   44784:	20800e17 	ldw	r2,56(r4)
   44788:	10000c26 	beq	r2,zero,447bc <_fflush_r+0x4c>
   4478c:	2880030f 	ldh	r2,12(r5)
   44790:	1000051e 	bne	r2,zero,447a8 <_fflush_r+0x38>
   44794:	0005883a 	mov	r2,zero
   44798:	dfc00217 	ldw	ra,8(sp)
   4479c:	dc000117 	ldw	r16,4(sp)
   447a0:	dec00304 	addi	sp,sp,12
   447a4:	f800283a 	ret
   447a8:	8009883a 	mov	r4,r16
   447ac:	dfc00217 	ldw	ra,8(sp)
   447b0:	dc000117 	ldw	r16,4(sp)
   447b4:	dec00304 	addi	sp,sp,12
   447b8:	00445541 	jmpi	44554 <__sflush_r>
   447bc:	d9400015 	stw	r5,0(sp)
   447c0:	0044b4c0 	call	44b4c <__sinit>
   447c4:	d9400017 	ldw	r5,0(sp)
   447c8:	003ff006 	br	4478c <__alt_mem_onchip_memory2_1+0xfffc378c>

000447cc <fflush>:
   447cc:	20000526 	beq	r4,zero,447e4 <fflush+0x18>
   447d0:	00800174 	movhi	r2,5
   447d4:	1085ee04 	addi	r2,r2,6072
   447d8:	200b883a 	mov	r5,r4
   447dc:	11000017 	ldw	r4,0(r2)
   447e0:	00447701 	jmpi	44770 <_fflush_r>
   447e4:	00800174 	movhi	r2,5
   447e8:	1085ed04 	addi	r2,r2,6068
   447ec:	11000017 	ldw	r4,0(r2)
   447f0:	01400134 	movhi	r5,4
   447f4:	2951dc04 	addi	r5,r5,18288
   447f8:	00455501 	jmpi	45550 <_fwalk_reent>

000447fc <__fp_unlock>:
   447fc:	0005883a 	mov	r2,zero
   44800:	f800283a 	ret

00044804 <_cleanup_r>:
   44804:	01400174 	movhi	r5,5
   44808:	29655a04 	addi	r5,r5,-27288
   4480c:	00455501 	jmpi	45550 <_fwalk_reent>

00044810 <__sinit.part.1>:
   44810:	defff704 	addi	sp,sp,-36
   44814:	00c00134 	movhi	r3,4
   44818:	dfc00815 	stw	ra,32(sp)
   4481c:	ddc00715 	stw	r23,28(sp)
   44820:	dd800615 	stw	r22,24(sp)
   44824:	dd400515 	stw	r21,20(sp)
   44828:	dd000415 	stw	r20,16(sp)
   4482c:	dcc00315 	stw	r19,12(sp)
   44830:	dc800215 	stw	r18,8(sp)
   44834:	dc400115 	stw	r17,4(sp)
   44838:	dc000015 	stw	r16,0(sp)
   4483c:	18d20104 	addi	r3,r3,18436
   44840:	24000117 	ldw	r16,4(r4)
   44844:	20c00f15 	stw	r3,60(r4)
   44848:	2080bb04 	addi	r2,r4,748
   4484c:	00c000c4 	movi	r3,3
   44850:	20c0b915 	stw	r3,740(r4)
   44854:	2080ba15 	stw	r2,744(r4)
   44858:	2000b815 	stw	zero,736(r4)
   4485c:	05c00204 	movi	r23,8
   44860:	00800104 	movi	r2,4
   44864:	2025883a 	mov	r18,r4
   44868:	b80d883a 	mov	r6,r23
   4486c:	81001704 	addi	r4,r16,92
   44870:	000b883a 	mov	r5,zero
   44874:	80000015 	stw	zero,0(r16)
   44878:	80000115 	stw	zero,4(r16)
   4487c:	80000215 	stw	zero,8(r16)
   44880:	8080030d 	sth	r2,12(r16)
   44884:	80001915 	stw	zero,100(r16)
   44888:	8000038d 	sth	zero,14(r16)
   4488c:	80000415 	stw	zero,16(r16)
   44890:	80000515 	stw	zero,20(r16)
   44894:	80000615 	stw	zero,24(r16)
   44898:	00464400 	call	46440 <memset>
   4489c:	05800134 	movhi	r22,4
   448a0:	94400217 	ldw	r17,8(r18)
   448a4:	05400134 	movhi	r21,4
   448a8:	05000134 	movhi	r20,4
   448ac:	04c00134 	movhi	r19,4
   448b0:	b59ee404 	addi	r22,r22,31632
   448b4:	ad5efb04 	addi	r21,r21,31724
   448b8:	a51f1a04 	addi	r20,r20,31848
   448bc:	9cdf3104 	addi	r19,r19,31940
   448c0:	85800815 	stw	r22,32(r16)
   448c4:	85400915 	stw	r21,36(r16)
   448c8:	85000a15 	stw	r20,40(r16)
   448cc:	84c00b15 	stw	r19,44(r16)
   448d0:	84000715 	stw	r16,28(r16)
   448d4:	00800284 	movi	r2,10
   448d8:	8880030d 	sth	r2,12(r17)
   448dc:	00800044 	movi	r2,1
   448e0:	b80d883a 	mov	r6,r23
   448e4:	89001704 	addi	r4,r17,92
   448e8:	000b883a 	mov	r5,zero
   448ec:	88000015 	stw	zero,0(r17)
   448f0:	88000115 	stw	zero,4(r17)
   448f4:	88000215 	stw	zero,8(r17)
   448f8:	88001915 	stw	zero,100(r17)
   448fc:	8880038d 	sth	r2,14(r17)
   44900:	88000415 	stw	zero,16(r17)
   44904:	88000515 	stw	zero,20(r17)
   44908:	88000615 	stw	zero,24(r17)
   4490c:	00464400 	call	46440 <memset>
   44910:	94000317 	ldw	r16,12(r18)
   44914:	00800484 	movi	r2,18
   44918:	8c400715 	stw	r17,28(r17)
   4491c:	8d800815 	stw	r22,32(r17)
   44920:	8d400915 	stw	r21,36(r17)
   44924:	8d000a15 	stw	r20,40(r17)
   44928:	8cc00b15 	stw	r19,44(r17)
   4492c:	8080030d 	sth	r2,12(r16)
   44930:	00800084 	movi	r2,2
   44934:	80000015 	stw	zero,0(r16)
   44938:	80000115 	stw	zero,4(r16)
   4493c:	80000215 	stw	zero,8(r16)
   44940:	80001915 	stw	zero,100(r16)
   44944:	8080038d 	sth	r2,14(r16)
   44948:	80000415 	stw	zero,16(r16)
   4494c:	80000515 	stw	zero,20(r16)
   44950:	80000615 	stw	zero,24(r16)
   44954:	b80d883a 	mov	r6,r23
   44958:	000b883a 	mov	r5,zero
   4495c:	81001704 	addi	r4,r16,92
   44960:	00464400 	call	46440 <memset>
   44964:	00800044 	movi	r2,1
   44968:	84000715 	stw	r16,28(r16)
   4496c:	85800815 	stw	r22,32(r16)
   44970:	85400915 	stw	r21,36(r16)
   44974:	85000a15 	stw	r20,40(r16)
   44978:	84c00b15 	stw	r19,44(r16)
   4497c:	90800e15 	stw	r2,56(r18)
   44980:	dfc00817 	ldw	ra,32(sp)
   44984:	ddc00717 	ldw	r23,28(sp)
   44988:	dd800617 	ldw	r22,24(sp)
   4498c:	dd400517 	ldw	r21,20(sp)
   44990:	dd000417 	ldw	r20,16(sp)
   44994:	dcc00317 	ldw	r19,12(sp)
   44998:	dc800217 	ldw	r18,8(sp)
   4499c:	dc400117 	ldw	r17,4(sp)
   449a0:	dc000017 	ldw	r16,0(sp)
   449a4:	dec00904 	addi	sp,sp,36
   449a8:	f800283a 	ret

000449ac <__fp_lock>:
   449ac:	0005883a 	mov	r2,zero
   449b0:	f800283a 	ret

000449b4 <__sfmoreglue>:
   449b4:	defffc04 	addi	sp,sp,-16
   449b8:	dc400115 	stw	r17,4(sp)
   449bc:	2c7fffc4 	addi	r17,r5,-1
   449c0:	8c401a24 	muli	r17,r17,104
   449c4:	dc800215 	stw	r18,8(sp)
   449c8:	2825883a 	mov	r18,r5
   449cc:	89401d04 	addi	r5,r17,116
   449d0:	dc000015 	stw	r16,0(sp)
   449d4:	dfc00315 	stw	ra,12(sp)
   449d8:	00458ac0 	call	458ac <_malloc_r>
   449dc:	1021883a 	mov	r16,r2
   449e0:	10000726 	beq	r2,zero,44a00 <__sfmoreglue+0x4c>
   449e4:	11000304 	addi	r4,r2,12
   449e8:	10000015 	stw	zero,0(r2)
   449ec:	14800115 	stw	r18,4(r2)
   449f0:	11000215 	stw	r4,8(r2)
   449f4:	89801a04 	addi	r6,r17,104
   449f8:	000b883a 	mov	r5,zero
   449fc:	00464400 	call	46440 <memset>
   44a00:	8005883a 	mov	r2,r16
   44a04:	dfc00317 	ldw	ra,12(sp)
   44a08:	dc800217 	ldw	r18,8(sp)
   44a0c:	dc400117 	ldw	r17,4(sp)
   44a10:	dc000017 	ldw	r16,0(sp)
   44a14:	dec00404 	addi	sp,sp,16
   44a18:	f800283a 	ret

00044a1c <__sfp>:
   44a1c:	defffb04 	addi	sp,sp,-20
   44a20:	dc000015 	stw	r16,0(sp)
   44a24:	04000174 	movhi	r16,5
   44a28:	8405ed04 	addi	r16,r16,6068
   44a2c:	dcc00315 	stw	r19,12(sp)
   44a30:	2027883a 	mov	r19,r4
   44a34:	81000017 	ldw	r4,0(r16)
   44a38:	dfc00415 	stw	ra,16(sp)
   44a3c:	dc800215 	stw	r18,8(sp)
   44a40:	20800e17 	ldw	r2,56(r4)
   44a44:	dc400115 	stw	r17,4(sp)
   44a48:	1000021e 	bne	r2,zero,44a54 <__sfp+0x38>
   44a4c:	00448100 	call	44810 <__sinit.part.1>
   44a50:	81000017 	ldw	r4,0(r16)
   44a54:	2480b804 	addi	r18,r4,736
   44a58:	047fffc4 	movi	r17,-1
   44a5c:	91000117 	ldw	r4,4(r18)
   44a60:	94000217 	ldw	r16,8(r18)
   44a64:	213fffc4 	addi	r4,r4,-1
   44a68:	20000a16 	blt	r4,zero,44a94 <__sfp+0x78>
   44a6c:	8080030f 	ldh	r2,12(r16)
   44a70:	10000c26 	beq	r2,zero,44aa4 <__sfp+0x88>
   44a74:	80c01d04 	addi	r3,r16,116
   44a78:	00000206 	br	44a84 <__sfp+0x68>
   44a7c:	18bfe60f 	ldh	r2,-104(r3)
   44a80:	10000826 	beq	r2,zero,44aa4 <__sfp+0x88>
   44a84:	213fffc4 	addi	r4,r4,-1
   44a88:	1c3ffd04 	addi	r16,r3,-12
   44a8c:	18c01a04 	addi	r3,r3,104
   44a90:	247ffa1e 	bne	r4,r17,44a7c <__alt_mem_onchip_memory2_1+0xfffc3a7c>
   44a94:	90800017 	ldw	r2,0(r18)
   44a98:	10001d26 	beq	r2,zero,44b10 <__sfp+0xf4>
   44a9c:	1025883a 	mov	r18,r2
   44aa0:	003fee06 	br	44a5c <__alt_mem_onchip_memory2_1+0xfffc3a5c>
   44aa4:	00bfffc4 	movi	r2,-1
   44aa8:	8080038d 	sth	r2,14(r16)
   44aac:	00800044 	movi	r2,1
   44ab0:	8080030d 	sth	r2,12(r16)
   44ab4:	80001915 	stw	zero,100(r16)
   44ab8:	80000015 	stw	zero,0(r16)
   44abc:	80000215 	stw	zero,8(r16)
   44ac0:	80000115 	stw	zero,4(r16)
   44ac4:	80000415 	stw	zero,16(r16)
   44ac8:	80000515 	stw	zero,20(r16)
   44acc:	80000615 	stw	zero,24(r16)
   44ad0:	01800204 	movi	r6,8
   44ad4:	000b883a 	mov	r5,zero
   44ad8:	81001704 	addi	r4,r16,92
   44adc:	00464400 	call	46440 <memset>
   44ae0:	8005883a 	mov	r2,r16
   44ae4:	80000c15 	stw	zero,48(r16)
   44ae8:	80000d15 	stw	zero,52(r16)
   44aec:	80001115 	stw	zero,68(r16)
   44af0:	80001215 	stw	zero,72(r16)
   44af4:	dfc00417 	ldw	ra,16(sp)
   44af8:	dcc00317 	ldw	r19,12(sp)
   44afc:	dc800217 	ldw	r18,8(sp)
   44b00:	dc400117 	ldw	r17,4(sp)
   44b04:	dc000017 	ldw	r16,0(sp)
   44b08:	dec00504 	addi	sp,sp,20
   44b0c:	f800283a 	ret
   44b10:	01400104 	movi	r5,4
   44b14:	9809883a 	mov	r4,r19
   44b18:	00449b40 	call	449b4 <__sfmoreglue>
   44b1c:	90800015 	stw	r2,0(r18)
   44b20:	103fde1e 	bne	r2,zero,44a9c <__alt_mem_onchip_memory2_1+0xfffc3a9c>
   44b24:	00800304 	movi	r2,12
   44b28:	98800015 	stw	r2,0(r19)
   44b2c:	0005883a 	mov	r2,zero
   44b30:	003ff006 	br	44af4 <__alt_mem_onchip_memory2_1+0xfffc3af4>

00044b34 <_cleanup>:
   44b34:	00800174 	movhi	r2,5
   44b38:	1085ed04 	addi	r2,r2,6068
   44b3c:	11000017 	ldw	r4,0(r2)
   44b40:	01400174 	movhi	r5,5
   44b44:	29655a04 	addi	r5,r5,-27288
   44b48:	00455501 	jmpi	45550 <_fwalk_reent>

00044b4c <__sinit>:
   44b4c:	20800e17 	ldw	r2,56(r4)
   44b50:	10000126 	beq	r2,zero,44b58 <__sinit+0xc>
   44b54:	f800283a 	ret
   44b58:	00448101 	jmpi	44810 <__sinit.part.1>

00044b5c <__sfp_lock_acquire>:
   44b5c:	f800283a 	ret

00044b60 <__sfp_lock_release>:
   44b60:	f800283a 	ret

00044b64 <__sinit_lock_acquire>:
   44b64:	f800283a 	ret

00044b68 <__sinit_lock_release>:
   44b68:	f800283a 	ret

00044b6c <__fp_lock_all>:
   44b6c:	00800174 	movhi	r2,5
   44b70:	1085ee04 	addi	r2,r2,6072
   44b74:	11000017 	ldw	r4,0(r2)
   44b78:	01400134 	movhi	r5,4
   44b7c:	29526b04 	addi	r5,r5,18860
   44b80:	004548c1 	jmpi	4548c <_fwalk>

00044b84 <__fp_unlock_all>:
   44b84:	00800174 	movhi	r2,5
   44b88:	1085ee04 	addi	r2,r2,6072
   44b8c:	11000017 	ldw	r4,0(r2)
   44b90:	01400134 	movhi	r5,4
   44b94:	2951ff04 	addi	r5,r5,18428
   44b98:	004548c1 	jmpi	4548c <_fwalk>

00044b9c <_malloc_trim_r>:
   44b9c:	defffb04 	addi	sp,sp,-20
   44ba0:	dcc00315 	stw	r19,12(sp)
   44ba4:	04c00174 	movhi	r19,5
   44ba8:	dc800215 	stw	r18,8(sp)
   44bac:	dc400115 	stw	r17,4(sp)
   44bb0:	dc000015 	stw	r16,0(sp)
   44bb4:	dfc00415 	stw	ra,16(sp)
   44bb8:	2821883a 	mov	r16,r5
   44bbc:	9cc06904 	addi	r19,r19,420
   44bc0:	2025883a 	mov	r18,r4
   44bc4:	004d80c0 	call	4d80c <__malloc_lock>
   44bc8:	98800217 	ldw	r2,8(r19)
   44bcc:	14400117 	ldw	r17,4(r2)
   44bd0:	00bfff04 	movi	r2,-4
   44bd4:	88a2703a 	and	r17,r17,r2
   44bd8:	8c21c83a 	sub	r16,r17,r16
   44bdc:	8403fbc4 	addi	r16,r16,4079
   44be0:	8020d33a 	srli	r16,r16,12
   44be4:	0083ffc4 	movi	r2,4095
   44be8:	843fffc4 	addi	r16,r16,-1
   44bec:	8020933a 	slli	r16,r16,12
   44bf0:	1400060e 	bge	r2,r16,44c0c <_malloc_trim_r+0x70>
   44bf4:	000b883a 	mov	r5,zero
   44bf8:	9009883a 	mov	r4,r18
   44bfc:	0047b3c0 	call	47b3c <_sbrk_r>
   44c00:	98c00217 	ldw	r3,8(r19)
   44c04:	1c47883a 	add	r3,r3,r17
   44c08:	10c00a26 	beq	r2,r3,44c34 <_malloc_trim_r+0x98>
   44c0c:	9009883a 	mov	r4,r18
   44c10:	004d8300 	call	4d830 <__malloc_unlock>
   44c14:	0005883a 	mov	r2,zero
   44c18:	dfc00417 	ldw	ra,16(sp)
   44c1c:	dcc00317 	ldw	r19,12(sp)
   44c20:	dc800217 	ldw	r18,8(sp)
   44c24:	dc400117 	ldw	r17,4(sp)
   44c28:	dc000017 	ldw	r16,0(sp)
   44c2c:	dec00504 	addi	sp,sp,20
   44c30:	f800283a 	ret
   44c34:	040bc83a 	sub	r5,zero,r16
   44c38:	9009883a 	mov	r4,r18
   44c3c:	0047b3c0 	call	47b3c <_sbrk_r>
   44c40:	00ffffc4 	movi	r3,-1
   44c44:	10c00d26 	beq	r2,r3,44c7c <_malloc_trim_r+0xe0>
   44c48:	00c00174 	movhi	r3,5
   44c4c:	18ccc904 	addi	r3,r3,13092
   44c50:	18800017 	ldw	r2,0(r3)
   44c54:	99000217 	ldw	r4,8(r19)
   44c58:	8c23c83a 	sub	r17,r17,r16
   44c5c:	8c400054 	ori	r17,r17,1
   44c60:	1421c83a 	sub	r16,r2,r16
   44c64:	24400115 	stw	r17,4(r4)
   44c68:	9009883a 	mov	r4,r18
   44c6c:	1c000015 	stw	r16,0(r3)
   44c70:	004d8300 	call	4d830 <__malloc_unlock>
   44c74:	00800044 	movi	r2,1
   44c78:	003fe706 	br	44c18 <__alt_mem_onchip_memory2_1+0xfffc3c18>
   44c7c:	000b883a 	mov	r5,zero
   44c80:	9009883a 	mov	r4,r18
   44c84:	0047b3c0 	call	47b3c <_sbrk_r>
   44c88:	99000217 	ldw	r4,8(r19)
   44c8c:	014003c4 	movi	r5,15
   44c90:	1107c83a 	sub	r3,r2,r4
   44c94:	28ffdd0e 	bge	r5,r3,44c0c <__alt_mem_onchip_memory2_1+0xfffc3c0c>
   44c98:	01400174 	movhi	r5,5
   44c9c:	2945f004 	addi	r5,r5,6080
   44ca0:	29400017 	ldw	r5,0(r5)
   44ca4:	18c00054 	ori	r3,r3,1
   44ca8:	20c00115 	stw	r3,4(r4)
   44cac:	00c00174 	movhi	r3,5
   44cb0:	1145c83a 	sub	r2,r2,r5
   44cb4:	18ccc904 	addi	r3,r3,13092
   44cb8:	18800015 	stw	r2,0(r3)
   44cbc:	003fd306 	br	44c0c <__alt_mem_onchip_memory2_1+0xfffc3c0c>

00044cc0 <_free_r>:
   44cc0:	28004126 	beq	r5,zero,44dc8 <_free_r+0x108>
   44cc4:	defffd04 	addi	sp,sp,-12
   44cc8:	dc400115 	stw	r17,4(sp)
   44ccc:	dc000015 	stw	r16,0(sp)
   44cd0:	2023883a 	mov	r17,r4
   44cd4:	2821883a 	mov	r16,r5
   44cd8:	dfc00215 	stw	ra,8(sp)
   44cdc:	004d80c0 	call	4d80c <__malloc_lock>
   44ce0:	81ffff17 	ldw	r7,-4(r16)
   44ce4:	00bfff84 	movi	r2,-2
   44ce8:	01000174 	movhi	r4,5
   44cec:	81bffe04 	addi	r6,r16,-8
   44cf0:	3884703a 	and	r2,r7,r2
   44cf4:	21006904 	addi	r4,r4,420
   44cf8:	308b883a 	add	r5,r6,r2
   44cfc:	2a400117 	ldw	r9,4(r5)
   44d00:	22000217 	ldw	r8,8(r4)
   44d04:	00ffff04 	movi	r3,-4
   44d08:	48c6703a 	and	r3,r9,r3
   44d0c:	2a005726 	beq	r5,r8,44e6c <_free_r+0x1ac>
   44d10:	28c00115 	stw	r3,4(r5)
   44d14:	39c0004c 	andi	r7,r7,1
   44d18:	3800091e 	bne	r7,zero,44d40 <_free_r+0x80>
   44d1c:	823ffe17 	ldw	r8,-8(r16)
   44d20:	22400204 	addi	r9,r4,8
   44d24:	320dc83a 	sub	r6,r6,r8
   44d28:	31c00217 	ldw	r7,8(r6)
   44d2c:	1205883a 	add	r2,r2,r8
   44d30:	3a406526 	beq	r7,r9,44ec8 <_free_r+0x208>
   44d34:	32000317 	ldw	r8,12(r6)
   44d38:	3a000315 	stw	r8,12(r7)
   44d3c:	41c00215 	stw	r7,8(r8)
   44d40:	28cf883a 	add	r7,r5,r3
   44d44:	39c00117 	ldw	r7,4(r7)
   44d48:	39c0004c 	andi	r7,r7,1
   44d4c:	38003a26 	beq	r7,zero,44e38 <_free_r+0x178>
   44d50:	10c00054 	ori	r3,r2,1
   44d54:	30c00115 	stw	r3,4(r6)
   44d58:	3087883a 	add	r3,r6,r2
   44d5c:	18800015 	stw	r2,0(r3)
   44d60:	00c07fc4 	movi	r3,511
   44d64:	18801936 	bltu	r3,r2,44dcc <_free_r+0x10c>
   44d68:	1004d0fa 	srli	r2,r2,3
   44d6c:	01c00044 	movi	r7,1
   44d70:	21400117 	ldw	r5,4(r4)
   44d74:	10c00044 	addi	r3,r2,1
   44d78:	18c7883a 	add	r3,r3,r3
   44d7c:	1005d0ba 	srai	r2,r2,2
   44d80:	18c7883a 	add	r3,r3,r3
   44d84:	18c7883a 	add	r3,r3,r3
   44d88:	1907883a 	add	r3,r3,r4
   44d8c:	3884983a 	sll	r2,r7,r2
   44d90:	19c00017 	ldw	r7,0(r3)
   44d94:	1a3ffe04 	addi	r8,r3,-8
   44d98:	1144b03a 	or	r2,r2,r5
   44d9c:	32000315 	stw	r8,12(r6)
   44da0:	31c00215 	stw	r7,8(r6)
   44da4:	20800115 	stw	r2,4(r4)
   44da8:	19800015 	stw	r6,0(r3)
   44dac:	39800315 	stw	r6,12(r7)
   44db0:	8809883a 	mov	r4,r17
   44db4:	dfc00217 	ldw	ra,8(sp)
   44db8:	dc400117 	ldw	r17,4(sp)
   44dbc:	dc000017 	ldw	r16,0(sp)
   44dc0:	dec00304 	addi	sp,sp,12
   44dc4:	004d8301 	jmpi	4d830 <__malloc_unlock>
   44dc8:	f800283a 	ret
   44dcc:	100ad27a 	srli	r5,r2,9
   44dd0:	00c00104 	movi	r3,4
   44dd4:	19404a36 	bltu	r3,r5,44f00 <_free_r+0x240>
   44dd8:	100ad1ba 	srli	r5,r2,6
   44ddc:	28c00e44 	addi	r3,r5,57
   44de0:	18c7883a 	add	r3,r3,r3
   44de4:	29400e04 	addi	r5,r5,56
   44de8:	18c7883a 	add	r3,r3,r3
   44dec:	18c7883a 	add	r3,r3,r3
   44df0:	1909883a 	add	r4,r3,r4
   44df4:	20c00017 	ldw	r3,0(r4)
   44df8:	01c00174 	movhi	r7,5
   44dfc:	213ffe04 	addi	r4,r4,-8
   44e00:	39c06904 	addi	r7,r7,420
   44e04:	20c04426 	beq	r4,r3,44f18 <_free_r+0x258>
   44e08:	01ffff04 	movi	r7,-4
   44e0c:	19400117 	ldw	r5,4(r3)
   44e10:	29ca703a 	and	r5,r5,r7
   44e14:	1140022e 	bgeu	r2,r5,44e20 <_free_r+0x160>
   44e18:	18c00217 	ldw	r3,8(r3)
   44e1c:	20fffb1e 	bne	r4,r3,44e0c <__alt_mem_onchip_memory2_1+0xfffc3e0c>
   44e20:	19000317 	ldw	r4,12(r3)
   44e24:	31000315 	stw	r4,12(r6)
   44e28:	30c00215 	stw	r3,8(r6)
   44e2c:	21800215 	stw	r6,8(r4)
   44e30:	19800315 	stw	r6,12(r3)
   44e34:	003fde06 	br	44db0 <__alt_mem_onchip_memory2_1+0xfffc3db0>
   44e38:	29c00217 	ldw	r7,8(r5)
   44e3c:	10c5883a 	add	r2,r2,r3
   44e40:	00c00174 	movhi	r3,5
   44e44:	18c06b04 	addi	r3,r3,428
   44e48:	38c03b26 	beq	r7,r3,44f38 <_free_r+0x278>
   44e4c:	2a000317 	ldw	r8,12(r5)
   44e50:	11400054 	ori	r5,r2,1
   44e54:	3087883a 	add	r3,r6,r2
   44e58:	3a000315 	stw	r8,12(r7)
   44e5c:	41c00215 	stw	r7,8(r8)
   44e60:	31400115 	stw	r5,4(r6)
   44e64:	18800015 	stw	r2,0(r3)
   44e68:	003fbd06 	br	44d60 <__alt_mem_onchip_memory2_1+0xfffc3d60>
   44e6c:	39c0004c 	andi	r7,r7,1
   44e70:	10c5883a 	add	r2,r2,r3
   44e74:	3800071e 	bne	r7,zero,44e94 <_free_r+0x1d4>
   44e78:	81fffe17 	ldw	r7,-8(r16)
   44e7c:	31cdc83a 	sub	r6,r6,r7
   44e80:	30c00317 	ldw	r3,12(r6)
   44e84:	31400217 	ldw	r5,8(r6)
   44e88:	11c5883a 	add	r2,r2,r7
   44e8c:	28c00315 	stw	r3,12(r5)
   44e90:	19400215 	stw	r5,8(r3)
   44e94:	10c00054 	ori	r3,r2,1
   44e98:	30c00115 	stw	r3,4(r6)
   44e9c:	00c00174 	movhi	r3,5
   44ea0:	18c5f104 	addi	r3,r3,6084
   44ea4:	18c00017 	ldw	r3,0(r3)
   44ea8:	21800215 	stw	r6,8(r4)
   44eac:	10ffc036 	bltu	r2,r3,44db0 <__alt_mem_onchip_memory2_1+0xfffc3db0>
   44eb0:	00800174 	movhi	r2,5
   44eb4:	108cbe04 	addi	r2,r2,13048
   44eb8:	11400017 	ldw	r5,0(r2)
   44ebc:	8809883a 	mov	r4,r17
   44ec0:	0044b9c0 	call	44b9c <_malloc_trim_r>
   44ec4:	003fba06 	br	44db0 <__alt_mem_onchip_memory2_1+0xfffc3db0>
   44ec8:	28c9883a 	add	r4,r5,r3
   44ecc:	21000117 	ldw	r4,4(r4)
   44ed0:	2100004c 	andi	r4,r4,1
   44ed4:	2000391e 	bne	r4,zero,44fbc <_free_r+0x2fc>
   44ed8:	29c00217 	ldw	r7,8(r5)
   44edc:	29000317 	ldw	r4,12(r5)
   44ee0:	1885883a 	add	r2,r3,r2
   44ee4:	10c00054 	ori	r3,r2,1
   44ee8:	39000315 	stw	r4,12(r7)
   44eec:	21c00215 	stw	r7,8(r4)
   44ef0:	30c00115 	stw	r3,4(r6)
   44ef4:	308d883a 	add	r6,r6,r2
   44ef8:	30800015 	stw	r2,0(r6)
   44efc:	003fac06 	br	44db0 <__alt_mem_onchip_memory2_1+0xfffc3db0>
   44f00:	00c00504 	movi	r3,20
   44f04:	19401536 	bltu	r3,r5,44f5c <_free_r+0x29c>
   44f08:	28c01704 	addi	r3,r5,92
   44f0c:	18c7883a 	add	r3,r3,r3
   44f10:	294016c4 	addi	r5,r5,91
   44f14:	003fb406 	br	44de8 <__alt_mem_onchip_memory2_1+0xfffc3de8>
   44f18:	280bd0ba 	srai	r5,r5,2
   44f1c:	00c00044 	movi	r3,1
   44f20:	38800117 	ldw	r2,4(r7)
   44f24:	194a983a 	sll	r5,r3,r5
   44f28:	2007883a 	mov	r3,r4
   44f2c:	2884b03a 	or	r2,r5,r2
   44f30:	38800115 	stw	r2,4(r7)
   44f34:	003fbb06 	br	44e24 <__alt_mem_onchip_memory2_1+0xfffc3e24>
   44f38:	21800515 	stw	r6,20(r4)
   44f3c:	21800415 	stw	r6,16(r4)
   44f40:	10c00054 	ori	r3,r2,1
   44f44:	31c00315 	stw	r7,12(r6)
   44f48:	31c00215 	stw	r7,8(r6)
   44f4c:	30c00115 	stw	r3,4(r6)
   44f50:	308d883a 	add	r6,r6,r2
   44f54:	30800015 	stw	r2,0(r6)
   44f58:	003f9506 	br	44db0 <__alt_mem_onchip_memory2_1+0xfffc3db0>
   44f5c:	00c01504 	movi	r3,84
   44f60:	19400536 	bltu	r3,r5,44f78 <_free_r+0x2b8>
   44f64:	100ad33a 	srli	r5,r2,12
   44f68:	28c01bc4 	addi	r3,r5,111
   44f6c:	18c7883a 	add	r3,r3,r3
   44f70:	29401b84 	addi	r5,r5,110
   44f74:	003f9c06 	br	44de8 <__alt_mem_onchip_memory2_1+0xfffc3de8>
   44f78:	00c05504 	movi	r3,340
   44f7c:	19400536 	bltu	r3,r5,44f94 <_free_r+0x2d4>
   44f80:	100ad3fa 	srli	r5,r2,15
   44f84:	28c01e04 	addi	r3,r5,120
   44f88:	18c7883a 	add	r3,r3,r3
   44f8c:	29401dc4 	addi	r5,r5,119
   44f90:	003f9506 	br	44de8 <__alt_mem_onchip_memory2_1+0xfffc3de8>
   44f94:	00c15504 	movi	r3,1364
   44f98:	19400536 	bltu	r3,r5,44fb0 <_free_r+0x2f0>
   44f9c:	100ad4ba 	srli	r5,r2,18
   44fa0:	28c01f44 	addi	r3,r5,125
   44fa4:	18c7883a 	add	r3,r3,r3
   44fa8:	29401f04 	addi	r5,r5,124
   44fac:	003f8e06 	br	44de8 <__alt_mem_onchip_memory2_1+0xfffc3de8>
   44fb0:	00c03f84 	movi	r3,254
   44fb4:	01401f84 	movi	r5,126
   44fb8:	003f8b06 	br	44de8 <__alt_mem_onchip_memory2_1+0xfffc3de8>
   44fbc:	10c00054 	ori	r3,r2,1
   44fc0:	30c00115 	stw	r3,4(r6)
   44fc4:	308d883a 	add	r6,r6,r2
   44fc8:	30800015 	stw	r2,0(r6)
   44fcc:	003f7806 	br	44db0 <__alt_mem_onchip_memory2_1+0xfffc3db0>

00044fd0 <__sfvwrite_r>:
   44fd0:	30800217 	ldw	r2,8(r6)
   44fd4:	10006726 	beq	r2,zero,45174 <__sfvwrite_r+0x1a4>
   44fd8:	28c0030b 	ldhu	r3,12(r5)
   44fdc:	defff404 	addi	sp,sp,-48
   44fe0:	dd400715 	stw	r21,28(sp)
   44fe4:	dd000615 	stw	r20,24(sp)
   44fe8:	dc000215 	stw	r16,8(sp)
   44fec:	dfc00b15 	stw	ra,44(sp)
   44ff0:	df000a15 	stw	fp,40(sp)
   44ff4:	ddc00915 	stw	r23,36(sp)
   44ff8:	dd800815 	stw	r22,32(sp)
   44ffc:	dcc00515 	stw	r19,20(sp)
   45000:	dc800415 	stw	r18,16(sp)
   45004:	dc400315 	stw	r17,12(sp)
   45008:	1880020c 	andi	r2,r3,8
   4500c:	2821883a 	mov	r16,r5
   45010:	202b883a 	mov	r21,r4
   45014:	3029883a 	mov	r20,r6
   45018:	10002726 	beq	r2,zero,450b8 <__sfvwrite_r+0xe8>
   4501c:	28800417 	ldw	r2,16(r5)
   45020:	10002526 	beq	r2,zero,450b8 <__sfvwrite_r+0xe8>
   45024:	1880008c 	andi	r2,r3,2
   45028:	a4400017 	ldw	r17,0(r20)
   4502c:	10002a26 	beq	r2,zero,450d8 <__sfvwrite_r+0x108>
   45030:	05a00034 	movhi	r22,32768
   45034:	0027883a 	mov	r19,zero
   45038:	0025883a 	mov	r18,zero
   4503c:	b5bf0004 	addi	r22,r22,-1024
   45040:	980d883a 	mov	r6,r19
   45044:	a809883a 	mov	r4,r21
   45048:	90004626 	beq	r18,zero,45164 <__sfvwrite_r+0x194>
   4504c:	900f883a 	mov	r7,r18
   45050:	b480022e 	bgeu	r22,r18,4505c <__sfvwrite_r+0x8c>
   45054:	01e00034 	movhi	r7,32768
   45058:	39ff0004 	addi	r7,r7,-1024
   4505c:	80800917 	ldw	r2,36(r16)
   45060:	81400717 	ldw	r5,28(r16)
   45064:	103ee83a 	callr	r2
   45068:	0080570e 	bge	zero,r2,451c8 <__sfvwrite_r+0x1f8>
   4506c:	a0c00217 	ldw	r3,8(r20)
   45070:	98a7883a 	add	r19,r19,r2
   45074:	90a5c83a 	sub	r18,r18,r2
   45078:	1885c83a 	sub	r2,r3,r2
   4507c:	a0800215 	stw	r2,8(r20)
   45080:	103fef1e 	bne	r2,zero,45040 <__alt_mem_onchip_memory2_1+0xfffc4040>
   45084:	0005883a 	mov	r2,zero
   45088:	dfc00b17 	ldw	ra,44(sp)
   4508c:	df000a17 	ldw	fp,40(sp)
   45090:	ddc00917 	ldw	r23,36(sp)
   45094:	dd800817 	ldw	r22,32(sp)
   45098:	dd400717 	ldw	r21,28(sp)
   4509c:	dd000617 	ldw	r20,24(sp)
   450a0:	dcc00517 	ldw	r19,20(sp)
   450a4:	dc800417 	ldw	r18,16(sp)
   450a8:	dc400317 	ldw	r17,12(sp)
   450ac:	dc000217 	ldw	r16,8(sp)
   450b0:	dec00c04 	addi	sp,sp,48
   450b4:	f800283a 	ret
   450b8:	800b883a 	mov	r5,r16
   450bc:	a809883a 	mov	r4,r21
   450c0:	0042b780 	call	42b78 <__swsetup_r>
   450c4:	1000eb1e 	bne	r2,zero,45474 <__sfvwrite_r+0x4a4>
   450c8:	80c0030b 	ldhu	r3,12(r16)
   450cc:	a4400017 	ldw	r17,0(r20)
   450d0:	1880008c 	andi	r2,r3,2
   450d4:	103fd61e 	bne	r2,zero,45030 <__alt_mem_onchip_memory2_1+0xfffc4030>
   450d8:	1880004c 	andi	r2,r3,1
   450dc:	10003f1e 	bne	r2,zero,451dc <__sfvwrite_r+0x20c>
   450e0:	0039883a 	mov	fp,zero
   450e4:	0025883a 	mov	r18,zero
   450e8:	90001a26 	beq	r18,zero,45154 <__sfvwrite_r+0x184>
   450ec:	1880800c 	andi	r2,r3,512
   450f0:	84c00217 	ldw	r19,8(r16)
   450f4:	10002126 	beq	r2,zero,4517c <__sfvwrite_r+0x1ac>
   450f8:	982f883a 	mov	r23,r19
   450fc:	94c09336 	bltu	r18,r19,4534c <__sfvwrite_r+0x37c>
   45100:	1881200c 	andi	r2,r3,1152
   45104:	10009e1e 	bne	r2,zero,45380 <__sfvwrite_r+0x3b0>
   45108:	81000017 	ldw	r4,0(r16)
   4510c:	b80d883a 	mov	r6,r23
   45110:	e00b883a 	mov	r5,fp
   45114:	00462e40 	call	462e4 <memmove>
   45118:	80c00217 	ldw	r3,8(r16)
   4511c:	81000017 	ldw	r4,0(r16)
   45120:	9005883a 	mov	r2,r18
   45124:	1ce7c83a 	sub	r19,r3,r19
   45128:	25cf883a 	add	r7,r4,r23
   4512c:	84c00215 	stw	r19,8(r16)
   45130:	81c00015 	stw	r7,0(r16)
   45134:	a0c00217 	ldw	r3,8(r20)
   45138:	e0b9883a 	add	fp,fp,r2
   4513c:	90a5c83a 	sub	r18,r18,r2
   45140:	18a7c83a 	sub	r19,r3,r2
   45144:	a4c00215 	stw	r19,8(r20)
   45148:	983fce26 	beq	r19,zero,45084 <__alt_mem_onchip_memory2_1+0xfffc4084>
   4514c:	80c0030b 	ldhu	r3,12(r16)
   45150:	903fe61e 	bne	r18,zero,450ec <__alt_mem_onchip_memory2_1+0xfffc40ec>
   45154:	8f000017 	ldw	fp,0(r17)
   45158:	8c800117 	ldw	r18,4(r17)
   4515c:	8c400204 	addi	r17,r17,8
   45160:	003fe106 	br	450e8 <__alt_mem_onchip_memory2_1+0xfffc40e8>
   45164:	8cc00017 	ldw	r19,0(r17)
   45168:	8c800117 	ldw	r18,4(r17)
   4516c:	8c400204 	addi	r17,r17,8
   45170:	003fb306 	br	45040 <__alt_mem_onchip_memory2_1+0xfffc4040>
   45174:	0005883a 	mov	r2,zero
   45178:	f800283a 	ret
   4517c:	81000017 	ldw	r4,0(r16)
   45180:	80800417 	ldw	r2,16(r16)
   45184:	11005736 	bltu	r2,r4,452e4 <__sfvwrite_r+0x314>
   45188:	85c00517 	ldw	r23,20(r16)
   4518c:	95c05536 	bltu	r18,r23,452e4 <__sfvwrite_r+0x314>
   45190:	00a00034 	movhi	r2,32768
   45194:	10bfffc4 	addi	r2,r2,-1
   45198:	9009883a 	mov	r4,r18
   4519c:	1480012e 	bgeu	r2,r18,451a4 <__sfvwrite_r+0x1d4>
   451a0:	1009883a 	mov	r4,r2
   451a4:	b80b883a 	mov	r5,r23
   451a8:	004a7d40 	call	4a7d4 <__divsi3>
   451ac:	15cf383a 	mul	r7,r2,r23
   451b0:	81400717 	ldw	r5,28(r16)
   451b4:	80800917 	ldw	r2,36(r16)
   451b8:	e00d883a 	mov	r6,fp
   451bc:	a809883a 	mov	r4,r21
   451c0:	103ee83a 	callr	r2
   451c4:	00bfdb16 	blt	zero,r2,45134 <__alt_mem_onchip_memory2_1+0xfffc4134>
   451c8:	8080030b 	ldhu	r2,12(r16)
   451cc:	10801014 	ori	r2,r2,64
   451d0:	8080030d 	sth	r2,12(r16)
   451d4:	00bfffc4 	movi	r2,-1
   451d8:	003fab06 	br	45088 <__alt_mem_onchip_memory2_1+0xfffc4088>
   451dc:	0027883a 	mov	r19,zero
   451e0:	0011883a 	mov	r8,zero
   451e4:	0039883a 	mov	fp,zero
   451e8:	0025883a 	mov	r18,zero
   451ec:	90001f26 	beq	r18,zero,4526c <__sfvwrite_r+0x29c>
   451f0:	40005a26 	beq	r8,zero,4535c <__sfvwrite_r+0x38c>
   451f4:	982d883a 	mov	r22,r19
   451f8:	94c0012e 	bgeu	r18,r19,45200 <__sfvwrite_r+0x230>
   451fc:	902d883a 	mov	r22,r18
   45200:	81000017 	ldw	r4,0(r16)
   45204:	80800417 	ldw	r2,16(r16)
   45208:	b02f883a 	mov	r23,r22
   4520c:	81c00517 	ldw	r7,20(r16)
   45210:	1100032e 	bgeu	r2,r4,45220 <__sfvwrite_r+0x250>
   45214:	80c00217 	ldw	r3,8(r16)
   45218:	38c7883a 	add	r3,r7,r3
   4521c:	1d801816 	blt	r3,r22,45280 <__sfvwrite_r+0x2b0>
   45220:	b1c03e16 	blt	r22,r7,4531c <__sfvwrite_r+0x34c>
   45224:	80800917 	ldw	r2,36(r16)
   45228:	81400717 	ldw	r5,28(r16)
   4522c:	e00d883a 	mov	r6,fp
   45230:	da000115 	stw	r8,4(sp)
   45234:	a809883a 	mov	r4,r21
   45238:	103ee83a 	callr	r2
   4523c:	102f883a 	mov	r23,r2
   45240:	da000117 	ldw	r8,4(sp)
   45244:	00bfe00e 	bge	zero,r2,451c8 <__alt_mem_onchip_memory2_1+0xfffc41c8>
   45248:	9de7c83a 	sub	r19,r19,r23
   4524c:	98001f26 	beq	r19,zero,452cc <__sfvwrite_r+0x2fc>
   45250:	a0800217 	ldw	r2,8(r20)
   45254:	e5f9883a 	add	fp,fp,r23
   45258:	95e5c83a 	sub	r18,r18,r23
   4525c:	15efc83a 	sub	r23,r2,r23
   45260:	a5c00215 	stw	r23,8(r20)
   45264:	b83f8726 	beq	r23,zero,45084 <__alt_mem_onchip_memory2_1+0xfffc4084>
   45268:	903fe11e 	bne	r18,zero,451f0 <__alt_mem_onchip_memory2_1+0xfffc41f0>
   4526c:	8f000017 	ldw	fp,0(r17)
   45270:	8c800117 	ldw	r18,4(r17)
   45274:	0011883a 	mov	r8,zero
   45278:	8c400204 	addi	r17,r17,8
   4527c:	003fdb06 	br	451ec <__alt_mem_onchip_memory2_1+0xfffc41ec>
   45280:	180d883a 	mov	r6,r3
   45284:	e00b883a 	mov	r5,fp
   45288:	da000115 	stw	r8,4(sp)
   4528c:	d8c00015 	stw	r3,0(sp)
   45290:	00462e40 	call	462e4 <memmove>
   45294:	d8c00017 	ldw	r3,0(sp)
   45298:	80800017 	ldw	r2,0(r16)
   4529c:	800b883a 	mov	r5,r16
   452a0:	a809883a 	mov	r4,r21
   452a4:	10c5883a 	add	r2,r2,r3
   452a8:	80800015 	stw	r2,0(r16)
   452ac:	d8c00015 	stw	r3,0(sp)
   452b0:	00447700 	call	44770 <_fflush_r>
   452b4:	d8c00017 	ldw	r3,0(sp)
   452b8:	da000117 	ldw	r8,4(sp)
   452bc:	103fc21e 	bne	r2,zero,451c8 <__alt_mem_onchip_memory2_1+0xfffc41c8>
   452c0:	182f883a 	mov	r23,r3
   452c4:	9de7c83a 	sub	r19,r19,r23
   452c8:	983fe11e 	bne	r19,zero,45250 <__alt_mem_onchip_memory2_1+0xfffc4250>
   452cc:	800b883a 	mov	r5,r16
   452d0:	a809883a 	mov	r4,r21
   452d4:	00447700 	call	44770 <_fflush_r>
   452d8:	103fbb1e 	bne	r2,zero,451c8 <__alt_mem_onchip_memory2_1+0xfffc41c8>
   452dc:	0011883a 	mov	r8,zero
   452e0:	003fdb06 	br	45250 <__alt_mem_onchip_memory2_1+0xfffc4250>
   452e4:	94c0012e 	bgeu	r18,r19,452ec <__sfvwrite_r+0x31c>
   452e8:	9027883a 	mov	r19,r18
   452ec:	980d883a 	mov	r6,r19
   452f0:	e00b883a 	mov	r5,fp
   452f4:	00462e40 	call	462e4 <memmove>
   452f8:	80800217 	ldw	r2,8(r16)
   452fc:	80c00017 	ldw	r3,0(r16)
   45300:	14c5c83a 	sub	r2,r2,r19
   45304:	1cc7883a 	add	r3,r3,r19
   45308:	80800215 	stw	r2,8(r16)
   4530c:	80c00015 	stw	r3,0(r16)
   45310:	10004326 	beq	r2,zero,45420 <__sfvwrite_r+0x450>
   45314:	9805883a 	mov	r2,r19
   45318:	003f8606 	br	45134 <__alt_mem_onchip_memory2_1+0xfffc4134>
   4531c:	b00d883a 	mov	r6,r22
   45320:	e00b883a 	mov	r5,fp
   45324:	da000115 	stw	r8,4(sp)
   45328:	00462e40 	call	462e4 <memmove>
   4532c:	80800217 	ldw	r2,8(r16)
   45330:	80c00017 	ldw	r3,0(r16)
   45334:	da000117 	ldw	r8,4(sp)
   45338:	1585c83a 	sub	r2,r2,r22
   4533c:	1dad883a 	add	r22,r3,r22
   45340:	80800215 	stw	r2,8(r16)
   45344:	85800015 	stw	r22,0(r16)
   45348:	003fbf06 	br	45248 <__alt_mem_onchip_memory2_1+0xfffc4248>
   4534c:	81000017 	ldw	r4,0(r16)
   45350:	9027883a 	mov	r19,r18
   45354:	902f883a 	mov	r23,r18
   45358:	003f6c06 	br	4510c <__alt_mem_onchip_memory2_1+0xfffc410c>
   4535c:	900d883a 	mov	r6,r18
   45360:	01400284 	movi	r5,10
   45364:	e009883a 	mov	r4,fp
   45368:	00460b80 	call	460b8 <memchr>
   4536c:	10003e26 	beq	r2,zero,45468 <__sfvwrite_r+0x498>
   45370:	10800044 	addi	r2,r2,1
   45374:	1727c83a 	sub	r19,r2,fp
   45378:	02000044 	movi	r8,1
   4537c:	003f9d06 	br	451f4 <__alt_mem_onchip_memory2_1+0xfffc41f4>
   45380:	80800517 	ldw	r2,20(r16)
   45384:	81400417 	ldw	r5,16(r16)
   45388:	81c00017 	ldw	r7,0(r16)
   4538c:	10a7883a 	add	r19,r2,r2
   45390:	9885883a 	add	r2,r19,r2
   45394:	1026d7fa 	srli	r19,r2,31
   45398:	396dc83a 	sub	r22,r7,r5
   4539c:	b1000044 	addi	r4,r22,1
   453a0:	9885883a 	add	r2,r19,r2
   453a4:	1027d07a 	srai	r19,r2,1
   453a8:	2485883a 	add	r2,r4,r18
   453ac:	980d883a 	mov	r6,r19
   453b0:	9880022e 	bgeu	r19,r2,453bc <__sfvwrite_r+0x3ec>
   453b4:	1027883a 	mov	r19,r2
   453b8:	100d883a 	mov	r6,r2
   453bc:	18c1000c 	andi	r3,r3,1024
   453c0:	18001c26 	beq	r3,zero,45434 <__sfvwrite_r+0x464>
   453c4:	300b883a 	mov	r5,r6
   453c8:	a809883a 	mov	r4,r21
   453cc:	00458ac0 	call	458ac <_malloc_r>
   453d0:	102f883a 	mov	r23,r2
   453d4:	10002926 	beq	r2,zero,4547c <__sfvwrite_r+0x4ac>
   453d8:	81400417 	ldw	r5,16(r16)
   453dc:	b00d883a 	mov	r6,r22
   453e0:	1009883a 	mov	r4,r2
   453e4:	004619c0 	call	4619c <memcpy>
   453e8:	8080030b 	ldhu	r2,12(r16)
   453ec:	00fedfc4 	movi	r3,-1153
   453f0:	10c4703a 	and	r2,r2,r3
   453f4:	10802014 	ori	r2,r2,128
   453f8:	8080030d 	sth	r2,12(r16)
   453fc:	bd89883a 	add	r4,r23,r22
   45400:	9d8fc83a 	sub	r7,r19,r22
   45404:	85c00415 	stw	r23,16(r16)
   45408:	84c00515 	stw	r19,20(r16)
   4540c:	81000015 	stw	r4,0(r16)
   45410:	9027883a 	mov	r19,r18
   45414:	81c00215 	stw	r7,8(r16)
   45418:	902f883a 	mov	r23,r18
   4541c:	003f3b06 	br	4510c <__alt_mem_onchip_memory2_1+0xfffc410c>
   45420:	800b883a 	mov	r5,r16
   45424:	a809883a 	mov	r4,r21
   45428:	00447700 	call	44770 <_fflush_r>
   4542c:	103fb926 	beq	r2,zero,45314 <__alt_mem_onchip_memory2_1+0xfffc4314>
